Archive member included to satisfy reference by file (symbol)

../../../../slprj/ert/BMS_MCU_CODE/BMS_MCU_CODE_rtwlib.lib(BMS_MCU_CODE.c.o)
                              xil_interface.c.o (BMS_MCU_CODE_Init)
C:/Users/odona/OneDrive/Yara/Thesis/BMS_Thesis/slprj/ert/_sharedutils/rtwshared.lib(const_params.c.o)
                              ../../../../slprj/ert/BMS_MCU_CODE/BMS_MCU_CODE_rtwlib.lib(BMS_MCU_CODE.c.o) (rtCP_pooled_LE05XBL4ZbcQ)
C:/Users/odona/OneDrive/Yara/Thesis/BMS_Thesis/slprj/ert/_sharedutils/rtwshared.lib(intrp2d_fu32fl_pw.c.o)
                              ../../../../slprj/ert/BMS_MCU_CODE/BMS_MCU_CODE_rtwlib.lib(BMS_MCU_CODE.c.o) (intrp2d_fu32fl_pw)
C:/Users/odona/OneDrive/Yara/Thesis/BMS_Thesis/slprj/ert/_sharedutils/rtwshared.lib(look1_binlxpw.c.o)
                              ../../../../slprj/ert/BMS_MCU_CODE/BMS_MCU_CODE_rtwlib.lib(BMS_MCU_CODE.c.o) (look1_binlxpw)
C:/Users/odona/OneDrive/Yara/Thesis/BMS_Thesis/slprj/ert/_sharedutils/rtwshared.lib(maximum_TTkd84nS.c.o)
                              ../../../../slprj/ert/BMS_MCU_CODE/BMS_MCU_CODE_rtwlib.lib(BMS_MCU_CODE.c.o) (maximum_TTkd84nS)
C:/Users/odona/OneDrive/Yara/Thesis/BMS_Thesis/slprj/ert/_sharedutils/rtwshared.lib(minimum_ruU8vKTP.c.o)
                              ../../../../slprj/ert/BMS_MCU_CODE/BMS_MCU_CODE_rtwlib.lib(BMS_MCU_CODE.c.o) (minimum_ruU8vKTP)
C:/Users/odona/OneDrive/Yara/Thesis/BMS_Thesis/slprj/ert/_sharedutils/rtwshared.lib(plook_u32ff_binx.c.o)
                              ../../../../slprj/ert/BMS_MCU_CODE/BMS_MCU_CODE_rtwlib.lib(BMS_MCU_CODE.c.o) (plook_u32ff_binx)
C:/Users/odona/OneDrive/Yara/Thesis/BMS_Thesis/slprj/ert/_sharedutils/rtwshared.lib(rt_nonfinite.c.o)
                              C:/Users/odona/OneDrive/Yara/Thesis/BMS_Thesis/slprj/ert/_sharedutils/rtwshared.lib(maximum_TTkd84nS.c.o) (rtIsNaNF)
C:/Users/odona/OneDrive/Yara/Thesis/BMS_Thesis/slprj/ert/_sharedutils/rtwshared.lib(binsearch_u32f.c.o)
                              C:/Users/odona/OneDrive/Yara/Thesis/BMS_Thesis/slprj/ert/_sharedutils/rtwshared.lib(plook_u32ff_binx.c.o) (binsearch_u32f)
C:/Users/odona/OneDrive/Yara/Thesis/BMS_Thesis/slprj/ert/BMS_MCU_CODE/coderassumptions/lib/BMS_MCU_CODE_ca.lib(BMS_MCU_CODE_ca.c.o)
                              coder_assumptions_app.c.o (CA_BMS_MCU_CODE_Res)
C:/Users/odona/OneDrive/Yara/Thesis/BMS_Thesis/slprj/ert/BMS_MCU_CODE/coderassumptions/lib/BMS_MCU_CODE_ca.lib(coder_assumptions_hwimpl.c.o)
                              C:/Users/odona/OneDrive/Yara/Thesis/BMS_Thesis/slprj/ert/BMS_MCU_CODE/coderassumptions/lib/BMS_MCU_CODE_ca.lib(BMS_MCU_CODE_ca.c.o) (caVerifyChecks)
C:/Users/odona/OneDrive/Yara/Thesis/BMS_Thesis/slprj/ert/BMS_MCU_CODE/coderassumptions/lib/BMS_MCU_CODE_ca.lib(coder_assumptions_flt.c.o)
                              C:/Users/odona/OneDrive/Yara/Thesis/BMS_Thesis/slprj/ert/BMS_MCU_CODE/coderassumptions/lib/BMS_MCU_CODE_ca.lib(coder_assumptions_hwimpl.c.o) (denormalAsZero)
C:/ProgramData/MATLAB/SupportPackages/R2025b/3P.instrset/gnuarm-armcortex.instrset/win/bin/../lib/gcc/arm-none-eabi/13.2.1/thumb/v7e-m+fp/hard\libm.a(libm_a-s_fmin.o)
                              ../../../../slprj/ert/BMS_MCU_CODE/BMS_MCU_CODE_rtwlib.lib(BMS_MCU_CODE.c.o) (fmin)
C:/ProgramData/MATLAB/SupportPackages/R2025b/3P.instrset/gnuarm-armcortex.instrset/win/bin/../lib/gcc/arm-none-eabi/13.2.1/thumb/v7e-m+fp/hard\libm.a(libm_a-s_fpclassify.o)
                              C:/ProgramData/MATLAB/SupportPackages/R2025b/3P.instrset/gnuarm-armcortex.instrset/win/bin/../lib/gcc/arm-none-eabi/13.2.1/thumb/v7e-m+fp/hard\libm.a(libm_a-s_fmin.o) (__fpclassifyd)
C:/ProgramData/MATLAB/SupportPackages/R2025b/3P.instrset/gnuarm-armcortex.instrset/win/bin/../lib/gcc/arm-none-eabi/13.2.1/thumb/v7e-m+fp/hard\libm.a(libm_a-sf_fmax.o)
                              ../../../../slprj/ert/BMS_MCU_CODE/BMS_MCU_CODE_rtwlib.lib(BMS_MCU_CODE.c.o) (fmaxf)
C:/ProgramData/MATLAB/SupportPackages/R2025b/3P.instrset/gnuarm-armcortex.instrset/win/bin/../lib/gcc/arm-none-eabi/13.2.1/thumb/v7e-m+fp/hard\libm.a(libm_a-sf_fmin.o)
                              ../../../../slprj/ert/BMS_MCU_CODE/BMS_MCU_CODE_rtwlib.lib(BMS_MCU_CODE.c.o) (fminf)
C:/ProgramData/MATLAB/SupportPackages/R2025b/3P.instrset/gnuarm-armcortex.instrset/win/bin/../lib/gcc/arm-none-eabi/13.2.1/thumb/v7e-m+fp/hard\libm.a(libm_a-sf_fpclassify.o)
                              C:/ProgramData/MATLAB/SupportPackages/R2025b/3P.instrset/gnuarm-armcortex.instrset/win/bin/../lib/gcc/arm-none-eabi/13.2.1/thumb/v7e-m+fp/hard\libm.a(libm_a-sf_fmax.o) (__fpclassifyf)
C:/ProgramData/MATLAB/SupportPackages/R2025b/3P.instrset/gnuarm-armcortex.instrset/win/bin/../lib/gcc/arm-none-eabi/13.2.1/thumb/v7e-m+fp/hard\libgcc.a(_arm_muldf3.o)
                              ../../../../slprj/ert/BMS_MCU_CODE/BMS_MCU_CODE_rtwlib.lib(BMS_MCU_CODE.c.o) (__aeabi_dmul)
C:/ProgramData/MATLAB/SupportPackages/R2025b/3P.instrset/gnuarm-armcortex.instrset/win/bin/../lib/gcc/arm-none-eabi/13.2.1/thumb/v7e-m+fp/hard\libgcc.a(_arm_addsubdf3.o)
                              ../../../../slprj/ert/BMS_MCU_CODE/BMS_MCU_CODE_rtwlib.lib(BMS_MCU_CODE.c.o) (__aeabi_dsub)
C:/ProgramData/MATLAB/SupportPackages/R2025b/3P.instrset/gnuarm-armcortex.instrset/win/bin/../lib/gcc/arm-none-eabi/13.2.1/thumb/v7e-m+fp/hard\libgcc.a(_arm_muldivdf3.o)
                              ../../../../slprj/ert/BMS_MCU_CODE/BMS_MCU_CODE_rtwlib.lib(BMS_MCU_CODE.c.o) (__aeabi_ddiv)
C:/ProgramData/MATLAB/SupportPackages/R2025b/3P.instrset/gnuarm-armcortex.instrset/win/bin/../lib/gcc/arm-none-eabi/13.2.1/thumb/v7e-m+fp/hard\libgcc.a(_arm_cmpdf2.o)
                              C:/Users/odona/OneDrive/Yara/Thesis/BMS_Thesis/slprj/ert/BMS_MCU_CODE/coderassumptions/lib/BMS_MCU_CODE_ca.lib(coder_assumptions_hwimpl.c.o) (__aeabi_dcmpeq)
C:/ProgramData/MATLAB/SupportPackages/R2025b/3P.instrset/gnuarm-armcortex.instrset/win/bin/../lib/gcc/arm-none-eabi/13.2.1/thumb/v7e-m+fp/hard\libgcc.a(_arm_unorddf2.o)
                              C:/Users/odona/OneDrive/Yara/Thesis/BMS_Thesis/slprj/ert/_sharedutils/rtwshared.lib(rt_nonfinite.c.o) (__aeabi_dcmpun)
C:/ProgramData/MATLAB/SupportPackages/R2025b/3P.instrset/gnuarm-armcortex.instrset/win/bin/../lib/gcc/arm-none-eabi/13.2.1/thumb/v7e-m+fp/hard\libgcc.a(_arm_truncdfsf2.o)
                              ../../../../slprj/ert/BMS_MCU_CODE/BMS_MCU_CODE_rtwlib.lib(BMS_MCU_CODE.c.o) (__aeabi_d2f)
C:/ProgramData/MATLAB/SupportPackages/R2025b/3P.instrset/gnuarm-armcortex.instrset/win/bin/../lib/gcc/arm-none-eabi/13.2.1/thumb/v7e-m+fp/hard\libgcc.a(_aeabi_uldivmod.o)
                              stm32f4xx_hal_rcc.c.o (__aeabi_uldivmod)
C:/ProgramData/MATLAB/SupportPackages/R2025b/3P.instrset/gnuarm-armcortex.instrset/win/bin/../lib/gcc/arm-none-eabi/13.2.1/thumb/v7e-m+fp/hard\libgcc.a(_udivmoddi4.o)
                              C:/ProgramData/MATLAB/SupportPackages/R2025b/3P.instrset/gnuarm-armcortex.instrset/win/bin/../lib/gcc/arm-none-eabi/13.2.1/thumb/v7e-m+fp/hard\libgcc.a(_aeabi_uldivmod.o) (__udivmoddi4)
C:/ProgramData/MATLAB/SupportPackages/R2025b/3P.instrset/gnuarm-armcortex.instrset/win/bin/../lib/gcc/arm-none-eabi/13.2.1/thumb/v7e-m+fp/hard\libgcc.a(_dvmd_tls.o)
                              C:/ProgramData/MATLAB/SupportPackages/R2025b/3P.instrset/gnuarm-armcortex.instrset/win/bin/../lib/gcc/arm-none-eabi/13.2.1/thumb/v7e-m+fp/hard\libgcc.a(_aeabi_uldivmod.o) (__aeabi_ldiv0)
C:/ProgramData/MATLAB/SupportPackages/R2025b/3P.instrset/gnuarm-armcortex.instrset/win/bin/../lib/gcc/arm-none-eabi/13.2.1/thumb/v7e-m+fp/hard\libg_nano.a(libc_a-exit.o)
                              C:/ProgramData/MATLAB/SupportPackages/R2025b/3P.instrset/gnuarm-armcortex.instrset/win/bin/../lib/gcc/arm-none-eabi/13.2.1/thumb/v7e-m+fp/hard/crt0.o (exit)
C:/ProgramData/MATLAB/SupportPackages/R2025b/3P.instrset/gnuarm-armcortex.instrset/win/bin/../lib/gcc/arm-none-eabi/13.2.1/thumb/v7e-m+fp/hard\libg_nano.a(libc_a-findfp.o)
                              C:/ProgramData/MATLAB/SupportPackages/R2025b/3P.instrset/gnuarm-armcortex.instrset/win/bin/../lib/gcc/arm-none-eabi/13.2.1/thumb/v7e-m+fp/hard\libg_nano.a(libc_a-exit.o) (__stdio_exit_handler)
C:/ProgramData/MATLAB/SupportPackages/R2025b/3P.instrset/gnuarm-armcortex.instrset/win/bin/../lib/gcc/arm-none-eabi/13.2.1/thumb/v7e-m+fp/hard\libg_nano.a(libc_a-fwalk.o)
                              C:/ProgramData/MATLAB/SupportPackages/R2025b/3P.instrset/gnuarm-armcortex.instrset/win/bin/../lib/gcc/arm-none-eabi/13.2.1/thumb/v7e-m+fp/hard\libg_nano.a(libc_a-findfp.o) (_fwalk_sglue)
C:/ProgramData/MATLAB/SupportPackages/R2025b/3P.instrset/gnuarm-armcortex.instrset/win/bin/../lib/gcc/arm-none-eabi/13.2.1/thumb/v7e-m+fp/hard\libg_nano.a(libc_a-stdio.o)
                              C:/ProgramData/MATLAB/SupportPackages/R2025b/3P.instrset/gnuarm-armcortex.instrset/win/bin/../lib/gcc/arm-none-eabi/13.2.1/thumb/v7e-m+fp/hard\libg_nano.a(libc_a-findfp.o) (__sread)
C:/ProgramData/MATLAB/SupportPackages/R2025b/3P.instrset/gnuarm-armcortex.instrset/win/bin/../lib/gcc/arm-none-eabi/13.2.1/thumb/v7e-m+fp/hard\libg_nano.a(libc_a-memset.o)
                              C:/ProgramData/MATLAB/SupportPackages/R2025b/3P.instrset/gnuarm-armcortex.instrset/win/bin/../lib/gcc/arm-none-eabi/13.2.1/thumb/v7e-m+fp/hard/crt0.o (memset)
C:/ProgramData/MATLAB/SupportPackages/R2025b/3P.instrset/gnuarm-armcortex.instrset/win/bin/../lib/gcc/arm-none-eabi/13.2.1/thumb/v7e-m+fp/hard\libg_nano.a(libc_a-closer.o)
                              C:/ProgramData/MATLAB/SupportPackages/R2025b/3P.instrset/gnuarm-armcortex.instrset/win/bin/../lib/gcc/arm-none-eabi/13.2.1/thumb/v7e-m+fp/hard\libg_nano.a(libc_a-stdio.o) (_close_r)
C:/ProgramData/MATLAB/SupportPackages/R2025b/3P.instrset/gnuarm-armcortex.instrset/win/bin/../lib/gcc/arm-none-eabi/13.2.1/thumb/v7e-m+fp/hard\libg_nano.a(libc_a-reent.o)
                              C:/ProgramData/MATLAB/SupportPackages/R2025b/3P.instrset/gnuarm-armcortex.instrset/win/bin/../lib/gcc/arm-none-eabi/13.2.1/thumb/v7e-m+fp/hard\libg_nano.a(libc_a-closer.o) (errno)
C:/ProgramData/MATLAB/SupportPackages/R2025b/3P.instrset/gnuarm-armcortex.instrset/win/bin/../lib/gcc/arm-none-eabi/13.2.1/thumb/v7e-m+fp/hard\libg_nano.a(libc_a-impure.o)
                              C:/ProgramData/MATLAB/SupportPackages/R2025b/3P.instrset/gnuarm-armcortex.instrset/win/bin/../lib/gcc/arm-none-eabi/13.2.1/thumb/v7e-m+fp/hard\libg_nano.a(libc_a-reent.o) (_impure_ptr)
C:/ProgramData/MATLAB/SupportPackages/R2025b/3P.instrset/gnuarm-armcortex.instrset/win/bin/../lib/gcc/arm-none-eabi/13.2.1/thumb/v7e-m+fp/hard\libg_nano.a(libc_a-lseekr.o)
                              C:/ProgramData/MATLAB/SupportPackages/R2025b/3P.instrset/gnuarm-armcortex.instrset/win/bin/../lib/gcc/arm-none-eabi/13.2.1/thumb/v7e-m+fp/hard\libg_nano.a(libc_a-stdio.o) (_lseek_r)
C:/ProgramData/MATLAB/SupportPackages/R2025b/3P.instrset/gnuarm-armcortex.instrset/win/bin/../lib/gcc/arm-none-eabi/13.2.1/thumb/v7e-m+fp/hard\libg_nano.a(libc_a-readr.o)
                              C:/ProgramData/MATLAB/SupportPackages/R2025b/3P.instrset/gnuarm-armcortex.instrset/win/bin/../lib/gcc/arm-none-eabi/13.2.1/thumb/v7e-m+fp/hard\libg_nano.a(libc_a-stdio.o) (_read_r)
C:/ProgramData/MATLAB/SupportPackages/R2025b/3P.instrset/gnuarm-armcortex.instrset/win/bin/../lib/gcc/arm-none-eabi/13.2.1/thumb/v7e-m+fp/hard\libg_nano.a(libc_a-writer.o)
                              C:/ProgramData/MATLAB/SupportPackages/R2025b/3P.instrset/gnuarm-armcortex.instrset/win/bin/../lib/gcc/arm-none-eabi/13.2.1/thumb/v7e-m+fp/hard\libg_nano.a(libc_a-stdio.o) (_write_r)
C:/ProgramData/MATLAB/SupportPackages/R2025b/3P.instrset/gnuarm-armcortex.instrset/win/bin/../lib/gcc/arm-none-eabi/13.2.1/thumb/v7e-m+fp/hard\libg_nano.a(libc_a-errno.o)
                              syscalls.c.o (__errno)
C:/ProgramData/MATLAB/SupportPackages/R2025b/3P.instrset/gnuarm-armcortex.instrset/win/bin/../lib/gcc/arm-none-eabi/13.2.1/thumb/v7e-m+fp/hard\libg_nano.a(libc_a-init.o)
                              C:/ProgramData/MATLAB/SupportPackages/R2025b/3P.instrset/gnuarm-armcortex.instrset/win/bin/../lib/gcc/arm-none-eabi/13.2.1/thumb/v7e-m+fp/hard/crt0.o (__libc_init_array)
C:/ProgramData/MATLAB/SupportPackages/R2025b/3P.instrset/gnuarm-armcortex.instrset/win/bin/../lib/gcc/arm-none-eabi/13.2.1/thumb/v7e-m+fp/hard\libg_nano.a(libc_a-lock.o)
                              C:/ProgramData/MATLAB/SupportPackages/R2025b/3P.instrset/gnuarm-armcortex.instrset/win/bin/../lib/gcc/arm-none-eabi/13.2.1/thumb/v7e-m+fp/hard\libg_nano.a(libc_a-findfp.o) (__retarget_lock_init_recursive)
C:/ProgramData/MATLAB/SupportPackages/R2025b/3P.instrset/gnuarm-armcortex.instrset/win/bin/../lib/gcc/arm-none-eabi/13.2.1/thumb/v7e-m+fp/hard\libg_nano.a(libc_a-memcpy-stub.o)
                              xil_data_stream.c.o (memcpy)
C:/ProgramData/MATLAB/SupportPackages/R2025b/3P.instrset/gnuarm-armcortex.instrset/win/bin/../lib/gcc/arm-none-eabi/13.2.1/thumb/v7e-m+fp/hard\libg_nano.a(libc_a-strlen.o)
                              xil_services.c.o (strlen)
C:/ProgramData/MATLAB/SupportPackages/R2025b/3P.instrset/gnuarm-armcortex.instrset/win/bin/../lib/gcc/arm-none-eabi/13.2.1/thumb/v7e-m+fp/hard\libg_nano.a(libc_a-freer.o)
                              C:/ProgramData/MATLAB/SupportPackages/R2025b/3P.instrset/gnuarm-armcortex.instrset/win/bin/../lib/gcc/arm-none-eabi/13.2.1/thumb/v7e-m+fp/hard\libg_nano.a(libc_a-reent.o) (_free_r)
C:/ProgramData/MATLAB/SupportPackages/R2025b/3P.instrset/gnuarm-armcortex.instrset/win/bin/../lib/gcc/arm-none-eabi/13.2.1/thumb/v7e-m+fp/hard\libg_nano.a(libc_a-mallocr.o)
                              C:/ProgramData/MATLAB/SupportPackages/R2025b/3P.instrset/gnuarm-armcortex.instrset/win/bin/../lib/gcc/arm-none-eabi/13.2.1/thumb/v7e-m+fp/hard\libg_nano.a(libc_a-findfp.o) (_malloc_r)
C:/ProgramData/MATLAB/SupportPackages/R2025b/3P.instrset/gnuarm-armcortex.instrset/win/bin/../lib/gcc/arm-none-eabi/13.2.1/thumb/v7e-m+fp/hard\libg_nano.a(libc_a-mlock.o)
                              C:/ProgramData/MATLAB/SupportPackages/R2025b/3P.instrset/gnuarm-armcortex.instrset/win/bin/../lib/gcc/arm-none-eabi/13.2.1/thumb/v7e-m+fp/hard\libg_nano.a(libc_a-freer.o) (__malloc_lock)
C:/ProgramData/MATLAB/SupportPackages/R2025b/3P.instrset/gnuarm-armcortex.instrset/win/bin/../lib/gcc/arm-none-eabi/13.2.1/thumb/v7e-m+fp/hard\libg_nano.a(libc_a-fflush.o)
                              C:/ProgramData/MATLAB/SupportPackages/R2025b/3P.instrset/gnuarm-armcortex.instrset/win/bin/../lib/gcc/arm-none-eabi/13.2.1/thumb/v7e-m+fp/hard\libg_nano.a(libc_a-findfp.o) (_fflush_r)
C:/ProgramData/MATLAB/SupportPackages/R2025b/3P.instrset/gnuarm-armcortex.instrset/win/bin/../lib/gcc/arm-none-eabi/13.2.1/thumb/v7e-m+fp/hard\libg_nano.a(libc_a-sbrkr.o)
                              C:/ProgramData/MATLAB/SupportPackages/R2025b/3P.instrset/gnuarm-armcortex.instrset/win/bin/../lib/gcc/arm-none-eabi/13.2.1/thumb/v7e-m+fp/hard\libg_nano.a(libc_a-mallocr.o) (_sbrk_r)

Discarded input sections

 .text          0x00000000        0x0 C:/ProgramData/MATLAB/SupportPackages/R2025b/3P.instrset/gnuarm-armcortex.instrset/win/bin/../lib/gcc/arm-none-eabi/13.2.1/thumb/v7e-m+fp/hard/crti.o
 .data          0x00000000        0x0 C:/ProgramData/MATLAB/SupportPackages/R2025b/3P.instrset/gnuarm-armcortex.instrset/win/bin/../lib/gcc/arm-none-eabi/13.2.1/thumb/v7e-m+fp/hard/crti.o
 .bss           0x00000000        0x0 C:/ProgramData/MATLAB/SupportPackages/R2025b/3P.instrset/gnuarm-armcortex.instrset/win/bin/../lib/gcc/arm-none-eabi/13.2.1/thumb/v7e-m+fp/hard/crti.o
 .text          0x00000000        0x0 C:/ProgramData/MATLAB/SupportPackages/R2025b/3P.instrset/gnuarm-armcortex.instrset/win/bin/../lib/gcc/arm-none-eabi/13.2.1/thumb/v7e-m+fp/hard/crtbegin.o
 .data          0x00000000        0x0 C:/ProgramData/MATLAB/SupportPackages/R2025b/3P.instrset/gnuarm-armcortex.instrset/win/bin/../lib/gcc/arm-none-eabi/13.2.1/thumb/v7e-m+fp/hard/crtbegin.o
 .bss           0x00000000        0x0 C:/ProgramData/MATLAB/SupportPackages/R2025b/3P.instrset/gnuarm-armcortex.instrset/win/bin/../lib/gcc/arm-none-eabi/13.2.1/thumb/v7e-m+fp/hard/crtbegin.o
 .rodata.all_implied_fbits
                0x00000000       0x24 C:/ProgramData/MATLAB/SupportPackages/R2025b/3P.instrset/gnuarm-armcortex.instrset/win/bin/../lib/gcc/arm-none-eabi/13.2.1/thumb/v7e-m+fp/hard/crtbegin.o
 .data.__dso_handle
                0x00000000        0x4 C:/ProgramData/MATLAB/SupportPackages/R2025b/3P.instrset/gnuarm-armcortex.instrset/win/bin/../lib/gcc/arm-none-eabi/13.2.1/thumb/v7e-m+fp/hard/crtbegin.o
 .text          0x00000000       0x7c C:/ProgramData/MATLAB/SupportPackages/R2025b/3P.instrset/gnuarm-armcortex.instrset/win/bin/../lib/gcc/arm-none-eabi/13.2.1/thumb/v7e-m+fp/hard/crt0.o
 .data          0x00000000        0x0 C:/ProgramData/MATLAB/SupportPackages/R2025b/3P.instrset/gnuarm-armcortex.instrset/win/bin/../lib/gcc/arm-none-eabi/13.2.1/thumb/v7e-m+fp/hard/crt0.o
 .bss           0x00000000        0x0 C:/ProgramData/MATLAB/SupportPackages/R2025b/3P.instrset/gnuarm-armcortex.instrset/win/bin/../lib/gcc/arm-none-eabi/13.2.1/thumb/v7e-m+fp/hard/crt0.o
 .ARM.extab     0x00000000        0x0 C:/ProgramData/MATLAB/SupportPackages/R2025b/3P.instrset/gnuarm-armcortex.instrset/win/bin/../lib/gcc/arm-none-eabi/13.2.1/thumb/v7e-m+fp/hard/crt0.o
 .ARM.exidx     0x00000000       0x10 C:/ProgramData/MATLAB/SupportPackages/R2025b/3P.instrset/gnuarm-armcortex.instrset/win/bin/../lib/gcc/arm-none-eabi/13.2.1/thumb/v7e-m+fp/hard/crt0.o
 .debug_line_str
                0x00000000       0xd6 C:/ProgramData/MATLAB/SupportPackages/R2025b/3P.instrset/gnuarm-armcortex.instrset/win/bin/../lib/gcc/arm-none-eabi/13.2.1/thumb/v7e-m+fp/hard/crt0.o
 .ARM.attributes
                0x00000000       0x20 C:/ProgramData/MATLAB/SupportPackages/R2025b/3P.instrset/gnuarm-armcortex.instrset/win/bin/../lib/gcc/arm-none-eabi/13.2.1/thumb/v7e-m+fp/hard/crt0.o
 .text          0x00000000        0x0 xil_interface_lib.c.o
 .data          0x00000000        0x0 xil_interface_lib.c.o
 .bss           0x00000000        0x0 xil_interface_lib.c.o
 .text.restoreProcessMsgContext
                0x00000000       0x38 xil_interface_lib.c.o
 .text.xilCommandDispatchAndResponse
                0x00000000       0xc0 xil_interface_lib.c.o
 .text.xilGetCurrentProcessMsgContext
                0x00000000       0x24 xil_interface_lib.c.o
 .text          0x00000000        0x0 xil_data_stream.c.o
 .data          0x00000000        0x0 xil_data_stream.c.o
 .bss           0x00000000        0x0 xil_data_stream.c.o
 .rodata.XILTGTAPPSVC_ERROR
                0x00000000        0x1 xil_data_stream.c.o
 .rodata.XILTGTAPPSVC_SUCCESS
                0x00000000        0x1 xil_data_stream.c.o
 .text          0x00000000        0x0 xil_services.c.o
 .data          0x00000000        0x0 xil_services.c.o
 .bss           0x00000000        0x0 xil_services.c.o
 .rodata.COMMS_SUCCESS
                0x00000000        0x4 xil_services.c.o
 .text.xilExceptionHandler
                0x00000000       0x68 xil_services.c.o
 .text          0x00000000        0x0 xil_interface.c.o
 .data          0x00000000        0x0 xil_interface.c.o
 .bss           0x00000000        0x0 xil_interface.c.o
 .text          0x00000000        0x0 xilcomms_rtiostream.c.o
 .data          0x00000000        0x0 xilcomms_rtiostream.c.o
 .bss           0x00000000        0x0 xilcomms_rtiostream.c.o
 .rodata.COMMS_ERROR
                0x00000000        0x4 xilcomms_rtiostream.c.o
 .rodata.COMMS_SUCCESS
                0x00000000        0x4 xilcomms_rtiostream.c.o
 .text          0x00000000        0x0 xil_rtiostream.c.o
 .data          0x00000000        0x0 xil_rtiostream.c.o
 .bss           0x00000000        0x0 xil_rtiostream.c.o
 .rodata.XILTGTAPPSVC_SUCCESS
                0x00000000        0x1 xil_rtiostream.c.o
 .text          0x00000000        0x0 rtiostream_utils.c.o
 .data          0x00000000        0x0 rtiostream_utils.c.o
 .bss           0x00000000        0x0 rtiostream_utils.c.o
 .text          0x00000000        0x0 coder_assumptions_app.c.o
 .data          0x00000000        0x0 coder_assumptions_app.c.o
 .bss           0x00000000        0x0 coder_assumptions_app.c.o
 .text          0x00000000        0x0 coder_assumptions_data_stream.c.o
 .data          0x00000000        0x0 coder_assumptions_data_stream.c.o
 .bss           0x00000000        0x0 coder_assumptions_data_stream.c.o
 .rodata.CODERASSUMPTGTAPPSVC_ERROR
                0x00000000        0x1 coder_assumptions_data_stream.c.o
 .rodata.CODERASSUMPTGTAPPSVC_SUCCESS
                0x00000000        0x1 coder_assumptions_data_stream.c.o
 .text          0x00000000        0x0 coder_assumptions_rtiostream.c.o
 .data          0x00000000        0x0 coder_assumptions_rtiostream.c.o
 .bss           0x00000000        0x0 coder_assumptions_rtiostream.c.o
 .rodata.CODERASSUMPTGTAPPSVC_SUCCESS
                0x00000000        0x1 coder_assumptions_rtiostream.c.o
 .text          0x00000000        0x0 pil_main.c.o
 .data          0x00000000        0x0 pil_main.c.o
 .bss           0x00000000        0x0 pil_main.c.o
 .rodata.STREAM_OFFSET_TAB
                0x00000000        0x8 pil_main.c.o
 .text          0x00000000        0x0 rtiostream_serial.c.o
 .data          0x00000000        0x0 rtiostream_serial.c.o
 .bss           0x00000000        0x0 rtiostream_serial.c.o
 .rodata.STREAM_OFFSET_TAB
                0x00000000        0x8 rtiostream_serial.c.o
 .bss.UARTTxBuffer
                0x00000000        0x4 rtiostream_serial.c.o
 .text          0x00000000        0x0 stm_usart.c.o
 .data          0x00000000        0x0 stm_usart.c.o
 .bss           0x00000000        0x0 stm_usart.c.o
 .text.LL_DMA_SetMemoryAddress
                0x00000000       0x30 stm_usart.c.o
 .text.LL_USART_IsActiveFlag_RXNE
                0x00000000       0x26 stm_usart.c.o
 .text.LL_USART_EnableIT_TXE
                0x00000000       0x46 stm_usart.c.o
 .text.checkIfTransmitBufferFull
                0x00000000       0x64 stm_usart.c.o
 .text.copyToTransmitBuffer
                0x00000000       0xf4 stm_usart.c.o
 .text.UART_TXDMAInterruptHandler
                0x00000000      0x164 stm_usart.c.o
 .text.UART_IsActiveFlagRXNE
                0x00000000       0xca stm_usart.c.o
 .text.UART_IsActiveFlagTXE
                0x00000000       0x7a stm_usart.c.o
 .text.MW_UART_ReceiveUsingPolling
                0x00000000      0x17e stm_usart.c.o
 .text.MW_UART_TransmitUsingInterrupt
                0x00000000       0xd4 stm_usart.c.o
 .text.MW_UART_TransmitUsingDMA
                0x00000000       0xfc stm_usart.c.o
 .text          0x00000000        0x0 stm_lpuart.c.o
 .data          0x00000000        0x0 stm_lpuart.c.o
 .bss           0x00000000        0x0 stm_lpuart.c.o
 .debug_line    0x00000000        0x0 stm_lpuart.c.o
 .debug_str     0x00000000      0x172 stm_lpuart.c.o
 .comment       0x00000000       0x45 stm_lpuart.c.o
 .ARM.attributes
                0x00000000       0x34 stm_lpuart.c.o
 .text          0x00000000        0x0 platform_timer.c.o
 .data          0x00000000        0x0 platform_timer.c.o
 .bss           0x00000000        0x0 platform_timer.c.o
 .rodata.STREAM_OFFSET_TAB
                0x00000000        0x8 platform_timer.c.o
 .text          0x00000000        0x0 main.c.o
 .data          0x00000000        0x0 main.c.o
 .bss           0x00000000        0x0 main.c.o
 .text          0x00000000        0x0 stm32f4xx_it.c.o
 .data          0x00000000        0x0 stm32f4xx_it.c.o
 .bss           0x00000000        0x0 stm32f4xx_it.c.o
 .rodata.STREAM_OFFSET_TAB
                0x00000000        0x8 stm32f4xx_it.c.o
 .text.DMA1_Stream5_IRQHandler
                0x00000000        0xe stm32f4xx_it.c.o
 .text          0x00000000        0x0 stm32f4xx_hal_msp.c.o
 .data          0x00000000        0x0 stm32f4xx_hal_msp.c.o
 .bss           0x00000000        0x0 stm32f4xx_hal_msp.c.o
 .rodata.STREAM_OFFSET_TAB
                0x00000000        0x8 stm32f4xx_hal_msp.c.o
 .text          0x00000000        0x0 stm32f4xx_hal_timebase_tim.c.o
 .data          0x00000000        0x0 stm32f4xx_hal_timebase_tim.c.o
 .bss           0x00000000        0x0 stm32f4xx_hal_timebase_tim.c.o
 .text.HAL_SuspendTick
                0x00000000       0x24 stm32f4xx_hal_timebase_tim.c.o
 .text.HAL_ResumeTick
                0x00000000       0x24 stm32f4xx_hal_timebase_tim.c.o
 .text          0x00000000        0x0 stm32f4xx_hal_tim.c.o
 .data          0x00000000        0x0 stm32f4xx_hal_tim.c.o
 .bss           0x00000000        0x0 stm32f4xx_hal_tim.c.o
 .text.HAL_TIM_Base_DeInit
                0x00000000       0xa8 stm32f4xx_hal_tim.c.o
 .text.HAL_TIM_Base_MspDeInit
                0x00000000       0x14 stm32f4xx_hal_tim.c.o
 .text.HAL_TIM_Base_Start
                0x00000000       0xd0 stm32f4xx_hal_tim.c.o
 .text.HAL_TIM_Base_Stop
                0x00000000       0x4e stm32f4xx_hal_tim.c.o
 .text.HAL_TIM_Base_Stop_IT
                0x00000000       0x5e stm32f4xx_hal_tim.c.o
 .text.HAL_TIM_Base_Start_DMA
                0x00000000      0x144 stm32f4xx_hal_tim.c.o
 .text.HAL_TIM_Base_Stop_DMA
                0x00000000       0x64 stm32f4xx_hal_tim.c.o
 .text.HAL_TIM_OC_Init
                0x00000000       0x9e stm32f4xx_hal_tim.c.o
 .text.HAL_TIM_OC_DeInit
                0x00000000       0xa8 stm32f4xx_hal_tim.c.o
 .text.HAL_TIM_OC_MspInit
                0x00000000       0x14 stm32f4xx_hal_tim.c.o
 .text.HAL_TIM_OC_MspDeInit
                0x00000000       0x14 stm32f4xx_hal_tim.c.o
 .text.HAL_TIM_OC_Start
                0x00000000      0x190 stm32f4xx_hal_tim.c.o
 .text.HAL_TIM_OC_Stop
                0x00000000       0xe0 stm32f4xx_hal_tim.c.o
 .text.HAL_TIM_OC_Start_IT
                0x00000000      0x22c stm32f4xx_hal_tim.c.o
 .text.HAL_TIM_OC_Stop_IT
                0x00000000      0x17c stm32f4xx_hal_tim.c.o
 .text.HAL_TIM_OC_Start_DMA
                0x00000000      0x390 stm32f4xx_hal_tim.c.o
 .text.HAL_TIM_OC_Stop_DMA
                0x00000000      0x1a4 stm32f4xx_hal_tim.c.o
 .text.HAL_TIM_PWM_Init
                0x00000000       0x9e stm32f4xx_hal_tim.c.o
 .text.HAL_TIM_PWM_DeInit
                0x00000000       0xa8 stm32f4xx_hal_tim.c.o
 .text.HAL_TIM_PWM_MspInit
                0x00000000       0x14 stm32f4xx_hal_tim.c.o
 .text.HAL_TIM_PWM_MspDeInit
                0x00000000       0x14 stm32f4xx_hal_tim.c.o
 .text.HAL_TIM_PWM_Start
                0x00000000      0x190 stm32f4xx_hal_tim.c.o
 .text.HAL_TIM_PWM_Stop
                0x00000000       0xe0 stm32f4xx_hal_tim.c.o
 .text.HAL_TIM_PWM_Start_IT
                0x00000000      0x22c stm32f4xx_hal_tim.c.o
 .text.HAL_TIM_PWM_Stop_IT
                0x00000000      0x17c stm32f4xx_hal_tim.c.o
 .text.HAL_TIM_PWM_Start_DMA
                0x00000000      0x390 stm32f4xx_hal_tim.c.o
 .text.HAL_TIM_PWM_Stop_DMA
                0x00000000      0x1a4 stm32f4xx_hal_tim.c.o
 .text.HAL_TIM_IC_Init
                0x00000000       0x9e stm32f4xx_hal_tim.c.o
 .text.HAL_TIM_IC_DeInit
                0x00000000       0xa8 stm32f4xx_hal_tim.c.o
 .text.HAL_TIM_IC_MspInit
                0x00000000       0x14 stm32f4xx_hal_tim.c.o
 .text.HAL_TIM_IC_MspDeInit
                0x00000000       0x14 stm32f4xx_hal_tim.c.o
 .text.HAL_TIM_IC_Start
                0x00000000      0x1b8 stm32f4xx_hal_tim.c.o
 .text.HAL_TIM_IC_Stop
                0x00000000       0xc2 stm32f4xx_hal_tim.c.o
 .text.HAL_TIM_IC_Start_IT
                0x00000000      0x250 stm32f4xx_hal_tim.c.o
 .text.HAL_TIM_IC_Stop_IT
                0x00000000      0x15c stm32f4xx_hal_tim.c.o
 .text.HAL_TIM_IC_Start_DMA
                0x00000000      0x354 stm32f4xx_hal_tim.c.o
 .text.HAL_TIM_IC_Stop_DMA
                0x00000000      0x184 stm32f4xx_hal_tim.c.o
 .text.HAL_TIM_OnePulse_Init
                0x00000000       0xa0 stm32f4xx_hal_tim.c.o
 .text.HAL_TIM_OnePulse_DeInit
                0x00000000       0x88 stm32f4xx_hal_tim.c.o
 .text.HAL_TIM_OnePulse_MspInit
                0x00000000       0x14 stm32f4xx_hal_tim.c.o
 .text.HAL_TIM_OnePulse_MspDeInit
                0x00000000       0x14 stm32f4xx_hal_tim.c.o
 .text.HAL_TIM_OnePulse_Start
                0x00000000       0xc4 stm32f4xx_hal_tim.c.o
 .text.HAL_TIM_OnePulse_Stop
                0x00000000       0xd8 stm32f4xx_hal_tim.c.o
 .text.HAL_TIM_OnePulse_Start_IT
                0x00000000       0xe4 stm32f4xx_hal_tim.c.o
 .text.HAL_TIM_OnePulse_Stop_IT
                0x00000000       0xf8 stm32f4xx_hal_tim.c.o
 .text.HAL_TIM_Encoder_Init
                0x00000000      0x14c stm32f4xx_hal_tim.c.o
 .text.HAL_TIM_Encoder_DeInit
                0x00000000       0x88 stm32f4xx_hal_tim.c.o
 .text.HAL_TIM_Encoder_MspInit
                0x00000000       0x14 stm32f4xx_hal_tim.c.o
 .text.HAL_TIM_Encoder_MspDeInit
                0x00000000       0x14 stm32f4xx_hal_tim.c.o
 .text.HAL_TIM_Encoder_Start
                0x00000000      0x11c stm32f4xx_hal_tim.c.o
 .text.HAL_TIM_Encoder_Stop
                0x00000000      0x12e stm32f4xx_hal_tim.c.o
 .text.HAL_TIM_Encoder_Start_IT
                0x00000000      0x15c stm32f4xx_hal_tim.c.o
 .text.HAL_TIM_Encoder_Stop_IT
                0x00000000      0x16a stm32f4xx_hal_tim.c.o
 .text.HAL_TIM_Encoder_Start_DMA
                0x00000000      0x2d8 stm32f4xx_hal_tim.c.o
 .text.HAL_TIM_Encoder_Stop_DMA
                0x00000000      0x192 stm32f4xx_hal_tim.c.o
 .text.HAL_TIM_OC_ConfigChannel
                0x00000000       0xb8 stm32f4xx_hal_tim.c.o
 .text.HAL_TIM_IC_ConfigChannel
                0x00000000      0x138 stm32f4xx_hal_tim.c.o
 .text.HAL_TIM_PWM_ConfigChannel
                0x00000000      0x184 stm32f4xx_hal_tim.c.o
 .text.HAL_TIM_OnePulse_ConfigChannel
                0x00000000      0x1a4 stm32f4xx_hal_tim.c.o
 .text.HAL_TIM_DMABurst_WriteStart
                0x00000000       0x34 stm32f4xx_hal_tim.c.o
 .text.HAL_TIM_DMABurst_MultiWriteStart
                0x00000000      0x2a8 stm32f4xx_hal_tim.c.o
 .text.HAL_TIM_DMABurst_WriteStop
                0x00000000       0xf4 stm32f4xx_hal_tim.c.o
 .text.HAL_TIM_DMABurst_ReadStart
                0x00000000       0x34 stm32f4xx_hal_tim.c.o
 .text.HAL_TIM_DMABurst_MultiReadStart
                0x00000000      0x2a8 stm32f4xx_hal_tim.c.o
 .text.HAL_TIM_DMABurst_ReadStop
                0x00000000       0xf4 stm32f4xx_hal_tim.c.o
 .text.HAL_TIM_GenerateEvent
                0x00000000       0x4e stm32f4xx_hal_tim.c.o
 .text.HAL_TIM_ConfigOCrefClear
                0x00000000      0x198 stm32f4xx_hal_tim.c.o
 .text.HAL_TIM_ConfigClockSource
                0x00000000      0x18e stm32f4xx_hal_tim.c.o
 .text.HAL_TIM_ConfigTI1Input
                0x00000000       0x38 stm32f4xx_hal_tim.c.o
 .text.HAL_TIM_SlaveConfigSynchro
                0x00000000       0x84 stm32f4xx_hal_tim.c.o
 .text.HAL_TIM_SlaveConfigSynchro_IT
                0x00000000       0x84 stm32f4xx_hal_tim.c.o
 .text.HAL_TIM_ReadCapturedValue
                0x00000000       0x88 stm32f4xx_hal_tim.c.o
 .text.HAL_TIM_PeriodElapsedCallback
                0x00000000       0x14 stm32f4xx_hal_tim.c.o
 .text.HAL_TIM_PeriodElapsedHalfCpltCallback
                0x00000000       0x14 stm32f4xx_hal_tim.c.o
 .text.HAL_TIM_IC_CaptureHalfCpltCallback
                0x00000000       0x14 stm32f4xx_hal_tim.c.o
 .text.HAL_TIM_PWM_PulseFinishedHalfCpltCallback
                0x00000000       0x14 stm32f4xx_hal_tim.c.o
 .text.HAL_TIM_TriggerHalfCpltCallback
                0x00000000       0x14 stm32f4xx_hal_tim.c.o
 .text.HAL_TIM_ErrorCallback
                0x00000000       0x14 stm32f4xx_hal_tim.c.o
 .text.HAL_TIM_Base_GetState
                0x00000000       0x1c stm32f4xx_hal_tim.c.o
 .text.HAL_TIM_OC_GetState
                0x00000000       0x1c stm32f4xx_hal_tim.c.o
 .text.HAL_TIM_PWM_GetState
                0x00000000       0x1c stm32f4xx_hal_tim.c.o
 .text.HAL_TIM_IC_GetState
                0x00000000       0x1c stm32f4xx_hal_tim.c.o
 .text.HAL_TIM_OnePulse_GetState
                0x00000000       0x1c stm32f4xx_hal_tim.c.o
 .text.HAL_TIM_Encoder_GetState
                0x00000000       0x1c stm32f4xx_hal_tim.c.o
 .text.HAL_TIM_GetActiveChannel
                0x00000000       0x18 stm32f4xx_hal_tim.c.o
 .text.HAL_TIM_GetChannelState
                0x00000000       0x52 stm32f4xx_hal_tim.c.o
 .text.HAL_TIM_DMABurstState
                0x00000000       0x1c stm32f4xx_hal_tim.c.o
 .text.TIM_DMAError
                0x00000000       0x92 stm32f4xx_hal_tim.c.o
 .text.TIM_DMADelayPulseCplt
                0x00000000       0xa8 stm32f4xx_hal_tim.c.o
 .text.TIM_DMADelayPulseHalfCplt
                0x00000000       0x68 stm32f4xx_hal_tim.c.o
 .text.TIM_DMACaptureCplt
                0x00000000       0xc8 stm32f4xx_hal_tim.c.o
 .text.TIM_DMACaptureHalfCplt
                0x00000000       0x68 stm32f4xx_hal_tim.c.o
 .text.TIM_DMAPeriodElapsedCplt
                0x00000000       0x2e stm32f4xx_hal_tim.c.o
 .text.TIM_DMAPeriodElapsedHalfCplt
                0x00000000       0x1c stm32f4xx_hal_tim.c.o
 .text.TIM_DMATriggerCplt
                0x00000000       0x2e stm32f4xx_hal_tim.c.o
 .text.TIM_DMATriggerHalfCplt
                0x00000000       0x1c stm32f4xx_hal_tim.c.o
 .text.TIM_OC1_SetConfig
                0x00000000       0xe0 stm32f4xx_hal_tim.c.o
 .text.TIM_OC2_SetConfig
                0x00000000       0xec stm32f4xx_hal_tim.c.o
 .text.TIM_OC3_SetConfig
                0x00000000       0xe8 stm32f4xx_hal_tim.c.o
 .text.TIM_OC4_SetConfig
                0x00000000       0xac stm32f4xx_hal_tim.c.o
 .text.TIM_SlaveTimer_SetConfig
                0x00000000      0x122 stm32f4xx_hal_tim.c.o
 .text.TIM_TI1_SetConfig
                0x00000000       0xe8 stm32f4xx_hal_tim.c.o
 .text.TIM_TI1_ConfigInputStage
                0x00000000       0x5e stm32f4xx_hal_tim.c.o
 .text.TIM_TI2_SetConfig
                0x00000000       0x7a stm32f4xx_hal_tim.c.o
 .text.TIM_TI2_ConfigInputStage
                0x00000000       0x60 stm32f4xx_hal_tim.c.o
 .text.TIM_TI3_SetConfig
                0x00000000       0x78 stm32f4xx_hal_tim.c.o
 .text.TIM_TI4_SetConfig
                0x00000000       0x7a stm32f4xx_hal_tim.c.o
 .text.TIM_ITRx_SetConfig
                0x00000000       0x36 stm32f4xx_hal_tim.c.o
 .text.TIM_ETR_SetConfig
                0x00000000       0x40 stm32f4xx_hal_tim.c.o
 .text.TIM_CCxChannelCmd
                0x00000000       0x4a stm32f4xx_hal_tim.c.o
 .text          0x00000000        0x0 stm32f4xx_hal_tim_ex.c.o
 .data          0x00000000        0x0 stm32f4xx_hal_tim_ex.c.o
 .bss           0x00000000        0x0 stm32f4xx_hal_tim_ex.c.o
 .text.HAL_TIMEx_HallSensor_Init
                0x00000000      0x152 stm32f4xx_hal_tim_ex.c.o
 .text.HAL_TIMEx_HallSensor_DeInit
                0x00000000       0x88 stm32f4xx_hal_tim_ex.c.o
 .text.HAL_TIMEx_HallSensor_MspInit
                0x00000000       0x14 stm32f4xx_hal_tim_ex.c.o
 .text.HAL_TIMEx_HallSensor_MspDeInit
                0x00000000       0x14 stm32f4xx_hal_tim_ex.c.o
 .text.HAL_TIMEx_HallSensor_Start
                0x00000000      0x11c stm32f4xx_hal_tim_ex.c.o
 .text.HAL_TIMEx_HallSensor_Stop
                0x00000000       0x70 stm32f4xx_hal_tim_ex.c.o
 .text.HAL_TIMEx_HallSensor_Start_IT
                0x00000000      0x12c stm32f4xx_hal_tim_ex.c.o
 .text.HAL_TIMEx_HallSensor_Stop_IT
                0x00000000       0x80 stm32f4xx_hal_tim_ex.c.o
 .text.HAL_TIMEx_HallSensor_Start_DMA
                0x00000000      0x16c stm32f4xx_hal_tim_ex.c.o
 .text.HAL_TIMEx_HallSensor_Stop_DMA
                0x00000000       0x7a stm32f4xx_hal_tim_ex.c.o
 .text.HAL_TIMEx_OCN_Start
                0x00000000      0x174 stm32f4xx_hal_tim_ex.c.o
 .text.HAL_TIMEx_OCN_Stop
                0x00000000       0xba stm32f4xx_hal_tim_ex.c.o
 .text.HAL_TIMEx_OCN_Start_IT
                0x00000000      0x1e4 stm32f4xx_hal_tim_ex.c.o
 .text.HAL_TIMEx_OCN_Stop_IT
                0x00000000      0x13e stm32f4xx_hal_tim_ex.c.o
 .text.HAL_TIMEx_OCN_Start_DMA
                0x00000000      0x300 stm32f4xx_hal_tim_ex.c.o
 .text.HAL_TIMEx_OCN_Stop_DMA
                0x00000000      0x138 stm32f4xx_hal_tim_ex.c.o
 .text.HAL_TIMEx_PWMN_Start
                0x00000000      0x174 stm32f4xx_hal_tim_ex.c.o
 .text.HAL_TIMEx_PWMN_Stop
                0x00000000       0xba stm32f4xx_hal_tim_ex.c.o
 .text.HAL_TIMEx_PWMN_Start_IT
                0x00000000      0x1e4 stm32f4xx_hal_tim_ex.c.o
 .text.HAL_TIMEx_PWMN_Stop_IT
                0x00000000      0x13e stm32f4xx_hal_tim_ex.c.o
 .text.HAL_TIMEx_PWMN_Start_DMA
                0x00000000      0x300 stm32f4xx_hal_tim_ex.c.o
 .text.HAL_TIMEx_PWMN_Stop_DMA
                0x00000000      0x138 stm32f4xx_hal_tim_ex.c.o
 .text.HAL_TIMEx_OnePulseN_Start
                0x00000000       0xaa stm32f4xx_hal_tim_ex.c.o
 .text.HAL_TIMEx_OnePulseN_Stop
                0x00000000       0xbe stm32f4xx_hal_tim_ex.c.o
 .text.HAL_TIMEx_OnePulseN_Start_IT
                0x00000000       0xca stm32f4xx_hal_tim_ex.c.o
 .text.HAL_TIMEx_OnePulseN_Stop_IT
                0x00000000       0xde stm32f4xx_hal_tim_ex.c.o
 .text.HAL_TIMEx_ConfigCommutEvent
                0x00000000       0xc0 stm32f4xx_hal_tim_ex.c.o
 .text.HAL_TIMEx_ConfigCommutEvent_IT
                0x00000000       0xc0 stm32f4xx_hal_tim_ex.c.o
 .text.HAL_TIMEx_ConfigCommutEvent_DMA
                0x00000000       0xe4 stm32f4xx_hal_tim_ex.c.o
 .text.HAL_TIMEx_MasterConfigSynchronization
                0x00000000       0xf8 stm32f4xx_hal_tim_ex.c.o
 .text.HAL_TIMEx_ConfigBreakDeadTime
                0x00000000       0xa4 stm32f4xx_hal_tim_ex.c.o
 .text.HAL_TIMEx_RemapConfig
                0x00000000       0x3e stm32f4xx_hal_tim_ex.c.o
 .text.HAL_TIMEx_CommutHalfCpltCallback
                0x00000000       0x14 stm32f4xx_hal_tim_ex.c.o
 .text.HAL_TIMEx_HallSensor_GetState
                0x00000000       0x1c stm32f4xx_hal_tim_ex.c.o
 .text.HAL_TIMEx_GetChannelNState
                0x00000000       0x52 stm32f4xx_hal_tim_ex.c.o
 .text.TIMEx_DMACommutationCplt
                0x00000000       0x24 stm32f4xx_hal_tim_ex.c.o
 .text.TIMEx_DMACommutationHalfCplt
                0x00000000       0x24 stm32f4xx_hal_tim_ex.c.o
 .text.TIM_DMADelayPulseNCplt
                0x00000000       0x86 stm32f4xx_hal_tim_ex.c.o
 .text.TIM_DMAErrorCCxN
                0x00000000       0x6e stm32f4xx_hal_tim_ex.c.o
 .text.TIM_CCxNChannelCmd
                0x00000000       0x4a stm32f4xx_hal_tim_ex.c.o
 .text          0x00000000        0x0 stm32f4xx_ll_gpio.c.o
 .data          0x00000000        0x0 stm32f4xx_ll_gpio.c.o
 .bss           0x00000000        0x0 stm32f4xx_ll_gpio.c.o
 .text.LL_AHB1_GRP1_ForceReset
                0x00000000       0x24 stm32f4xx_ll_gpio.c.o
 .text.LL_AHB1_GRP1_ReleaseReset
                0x00000000       0x28 stm32f4xx_ll_gpio.c.o
 .text.LL_GPIO_DeInit
                0x00000000       0xec stm32f4xx_ll_gpio.c.o
 .text.LL_GPIO_StructInit
                0x00000000       0x3a stm32f4xx_ll_gpio.c.o
 .text          0x00000000        0x0 stm32f4xx_ll_dma.c.o
 .data          0x00000000        0x0 stm32f4xx_ll_dma.c.o
 .bss           0x00000000        0x0 stm32f4xx_ll_dma.c.o
 .rodata.STREAM_OFFSET_TAB
                0x00000000        0x8 stm32f4xx_ll_dma.c.o
 .text.LL_DMA_DisableStream
                0x00000000       0x40 stm32f4xx_ll_dma.c.o
 .text.LL_DMA_ConfigTransfer
                0x00000000       0x4c stm32f4xx_ll_dma.c.o
 .text.LL_DMA_SetDataLength
                0x00000000       0x48 stm32f4xx_ll_dma.c.o
 .text.LL_DMA_SetChannelSelection
                0x00000000       0x48 stm32f4xx_ll_dma.c.o
 .text.LL_DMA_SetMemoryBurstxfer
                0x00000000       0x48 stm32f4xx_ll_dma.c.o
 .text.LL_DMA_SetPeriphBurstxfer
                0x00000000       0x48 stm32f4xx_ll_dma.c.o
 .text.LL_DMA_ConfigFifo
                0x00000000       0x4c stm32f4xx_ll_dma.c.o
 .text.LL_DMA_SetMemoryAddress
                0x00000000       0x30 stm32f4xx_ll_dma.c.o
 .text.LL_DMA_SetPeriphAddress
                0x00000000       0x30 stm32f4xx_ll_dma.c.o
 .text.LL_AHB1_GRP1_ForceReset
                0x00000000       0x24 stm32f4xx_ll_dma.c.o
 .text.LL_AHB1_GRP1_ReleaseReset
                0x00000000       0x28 stm32f4xx_ll_dma.c.o
 .text.LL_DMA_DeInit
                0x00000000      0x290 stm32f4xx_ll_dma.c.o
 .text.LL_DMA_Init
                0x00000000       0xb4 stm32f4xx_ll_dma.c.o
 .text.LL_DMA_StructInit
                0x00000000       0x6e stm32f4xx_ll_dma.c.o
 .debug_info    0x00000000      0x7b3 stm32f4xx_ll_dma.c.o
 .debug_abbrev  0x00000000      0x1b4 stm32f4xx_ll_dma.c.o
 .debug_aranges
                0x00000000       0x88 stm32f4xx_ll_dma.c.o
 .debug_rnglists
                0x00000000       0x63 stm32f4xx_ll_dma.c.o
 .debug_line    0x00000000      0x599 stm32f4xx_ll_dma.c.o
 .debug_str     0x00000000      0x64f stm32f4xx_ll_dma.c.o
 .comment       0x00000000       0x45 stm32f4xx_ll_dma.c.o
 .debug_frame   0x00000000      0x23c stm32f4xx_ll_dma.c.o
 .ARM.attributes
                0x00000000       0x34 stm32f4xx_ll_dma.c.o
 .text          0x00000000        0x0 stm32f4xx_ll_spi.c.o
 .data          0x00000000        0x0 stm32f4xx_ll_spi.c.o
 .bss           0x00000000        0x0 stm32f4xx_ll_spi.c.o
 .text.LL_I2S_IsEnabled
                0x00000000       0x28 stm32f4xx_ll_spi.c.o
 .text.LL_APB1_GRP1_ForceReset
                0x00000000       0x24 stm32f4xx_ll_spi.c.o
 .text.LL_APB1_GRP1_ReleaseReset
                0x00000000       0x28 stm32f4xx_ll_spi.c.o
 .text.LL_APB2_GRP1_ForceReset
                0x00000000       0x24 stm32f4xx_ll_spi.c.o
 .text.LL_APB2_GRP1_ReleaseReset
                0x00000000       0x28 stm32f4xx_ll_spi.c.o
 .text.LL_SPI_DeInit
                0x00000000       0x98 stm32f4xx_ll_spi.c.o
 .text.LL_SPI_StructInit
                0x00000000       0x50 stm32f4xx_ll_spi.c.o
 .text.LL_I2S_DeInit
                0x00000000       0x18 stm32f4xx_ll_spi.c.o
 .text.LL_I2S_Init
                0x00000000      0x110 stm32f4xx_ll_spi.c.o
 .text.LL_I2S_StructInit
                0x00000000       0x38 stm32f4xx_ll_spi.c.o
 .text.LL_I2S_ConfigPrescaler
                0x00000000       0x32 stm32f4xx_ll_spi.c.o
 .text          0x00000000        0x0 stm32f4xx_ll_rcc.c.o
 .data          0x00000000        0x0 stm32f4xx_ll_rcc.c.o
 .bss           0x00000000        0x0 stm32f4xx_ll_rcc.c.o
 .text.LL_RCC_HSE_IsReady
                0x00000000       0x28 stm32f4xx_ll_rcc.c.o
 .text.LL_RCC_HSI_Enable
                0x00000000       0x20 stm32f4xx_ll_rcc.c.o
 .text.LL_RCC_HSI_IsReady
                0x00000000       0x24 stm32f4xx_ll_rcc.c.o
 .text.LL_RCC_HSI_SetCalibTrimming
                0x00000000       0x2c stm32f4xx_ll_rcc.c.o
 .text.LL_RCC_LSE_IsReady
                0x00000000       0x24 stm32f4xx_ll_rcc.c.o
 .text.LL_RCC_GetFMPI2CClockSource
                0x00000000       0x24 stm32f4xx_ll_rcc.c.o
 .text.LL_RCC_GetSAIClockSource
                0x00000000       0x28 stm32f4xx_ll_rcc.c.o
 .text.LL_RCC_GetSDIOClockSource
                0x00000000       0x24 stm32f4xx_ll_rcc.c.o
 .text.LL_RCC_GetCK48MClockSource
                0x00000000       0x24 stm32f4xx_ll_rcc.c.o
 .text.LL_RCC_GetUSBClockSource
                0x00000000       0x24 stm32f4xx_ll_rcc.c.o
 .text.LL_RCC_GetCECClockSource
                0x00000000       0x24 stm32f4xx_ll_rcc.c.o
 .text.LL_RCC_GetI2SClockSource
                0x00000000       0x28 stm32f4xx_ll_rcc.c.o
 .text.LL_RCC_GetSPDIFRXClockSource
                0x00000000       0x24 stm32f4xx_ll_rcc.c.o
 .text.LL_RCC_PLL_IsReady
                0x00000000       0x28 stm32f4xx_ll_rcc.c.o
 .text.LL_RCC_PLL_GetQ
                0x00000000       0x1c stm32f4xx_ll_rcc.c.o
 .text.LL_RCC_PLLI2S_IsReady
                0x00000000       0x28 stm32f4xx_ll_rcc.c.o
 .text.LL_RCC_PLLI2S_GetN
                0x00000000       0x20 stm32f4xx_ll_rcc.c.o
 .text.LL_RCC_PLLI2S_GetQ
                0x00000000       0x1c stm32f4xx_ll_rcc.c.o
 .text.LL_RCC_PLLI2S_GetR
                0x00000000       0x1c stm32f4xx_ll_rcc.c.o
 .text.LL_RCC_PLLI2S_GetP
                0x00000000       0x1c stm32f4xx_ll_rcc.c.o
 .text.LL_RCC_PLLI2S_GetDIVQ
                0x00000000       0x1c stm32f4xx_ll_rcc.c.o
 .text.LL_RCC_PLLI2S_GetDivider
                0x00000000       0x1c stm32f4xx_ll_rcc.c.o
 .text.LL_RCC_PLLI2S_GetMainSource
                0x00000000       0x1c stm32f4xx_ll_rcc.c.o
 .text.LL_RCC_PLLSAI_IsReady
                0x00000000       0x28 stm32f4xx_ll_rcc.c.o
 .text.LL_RCC_PLLSAI_GetDivider
                0x00000000       0x1c stm32f4xx_ll_rcc.c.o
 .text.LL_RCC_PLLSAI_GetN
                0x00000000       0x20 stm32f4xx_ll_rcc.c.o
 .text.LL_RCC_PLLSAI_GetQ
                0x00000000       0x1c stm32f4xx_ll_rcc.c.o
 .text.LL_RCC_PLLSAI_GetP
                0x00000000       0x1c stm32f4xx_ll_rcc.c.o
 .text.LL_RCC_PLLSAI_GetDIVQ
                0x00000000       0x1c stm32f4xx_ll_rcc.c.o
 .text.LL_RCC_DeInit
                0x00000000       0xe4 stm32f4xx_ll_rcc.c.o
 .text.LL_RCC_GetFMPI2CClockFreq
                0x00000000       0x6c stm32f4xx_ll_rcc.c.o
 .text.LL_RCC_GetI2SClockFreq
                0x00000000      0x140 stm32f4xx_ll_rcc.c.o
 .text.LL_RCC_GetSAIClockFreq
                0x00000000      0x110 stm32f4xx_ll_rcc.c.o
 .text.LL_RCC_GetSDIOClockFreq
                0x00000000       0x6c stm32f4xx_ll_rcc.c.o
 .text.LL_RCC_GetCECClockFreq
                0x00000000       0x4e stm32f4xx_ll_rcc.c.o
 .text.LL_RCC_GetUSBClockFreq
                0x00000000       0x4e stm32f4xx_ll_rcc.c.o
 .text.LL_RCC_GetSPDIFRXClockFreq
                0x00000000       0x4e stm32f4xx_ll_rcc.c.o
 .text.RCC_PLL_GetFreqDomain_48M
                0x00000000       0x68 stm32f4xx_ll_rcc.c.o
 .text.RCC_PLL_GetFreqDomain_I2S
                0x00000000       0x5c stm32f4xx_ll_rcc.c.o
 .text.RCC_PLL_GetFreqDomain_SPDIFRX
                0x00000000       0x5c stm32f4xx_ll_rcc.c.o
 .text.RCC_PLL_GetFreqDomain_SAI
                0x00000000       0x64 stm32f4xx_ll_rcc.c.o
 .text.RCC_PLLSAI_GetFreqDomain_SAI
                0x00000000       0x78 stm32f4xx_ll_rcc.c.o
 .text.RCC_PLLSAI_GetFreqDomain_48M
                0x00000000       0x6c stm32f4xx_ll_rcc.c.o
 .text.RCC_PLLI2S_GetFreqDomain_SAI
                0x00000000       0x70 stm32f4xx_ll_rcc.c.o
 .text.RCC_PLLI2S_GetFreqDomain_SPDIFRX
                0x00000000       0x60 stm32f4xx_ll_rcc.c.o
 .text.RCC_PLLI2S_GetFreqDomain_I2S
                0x00000000       0x64 stm32f4xx_ll_rcc.c.o
 .text          0x00000000        0x0 stm32f4xx_ll_utils.c.o
 .data          0x00000000        0x0 stm32f4xx_ll_utils.c.o
 .bss           0x00000000        0x0 stm32f4xx_ll_utils.c.o
 .text.LL_InitTick
                0x00000000       0x34 stm32f4xx_ll_utils.c.o
 .text.LL_RCC_HSE_EnableBypass
                0x00000000       0x20 stm32f4xx_ll_utils.c.o
 .text.LL_RCC_HSE_DisableBypass
                0x00000000       0x20 stm32f4xx_ll_utils.c.o
 .text.LL_RCC_HSE_Enable
                0x00000000       0x20 stm32f4xx_ll_utils.c.o
 .text.LL_RCC_HSE_IsReady
                0x00000000       0x28 stm32f4xx_ll_utils.c.o
 .text.LL_RCC_HSI_Enable
                0x00000000       0x20 stm32f4xx_ll_utils.c.o
 .text.LL_RCC_HSI_IsReady
                0x00000000       0x24 stm32f4xx_ll_utils.c.o
 .text.LL_RCC_SetSysClkSource
                0x00000000       0x28 stm32f4xx_ll_utils.c.o
 .text.LL_RCC_GetSysClkSource
                0x00000000       0x1c stm32f4xx_ll_utils.c.o
 .text.LL_RCC_SetAHBPrescaler
                0x00000000       0x28 stm32f4xx_ll_utils.c.o
 .text.LL_RCC_SetAPB1Prescaler
                0x00000000       0x28 stm32f4xx_ll_utils.c.o
 .text.LL_RCC_SetAPB2Prescaler
                0x00000000       0x28 stm32f4xx_ll_utils.c.o
 .text.LL_RCC_PLL_Enable
                0x00000000       0x20 stm32f4xx_ll_utils.c.o
 .text.LL_RCC_PLL_IsReady
                0x00000000       0x28 stm32f4xx_ll_utils.c.o
 .text.LL_RCC_PLL_ConfigDomain_SYS
                0x00000000       0x5c stm32f4xx_ll_utils.c.o
 .text.LL_RCC_PLLI2S_IsReady
                0x00000000       0x28 stm32f4xx_ll_utils.c.o
 .text.LL_RCC_PLLSAI_IsReady
                0x00000000       0x28 stm32f4xx_ll_utils.c.o
 .text.LL_FLASH_SetLatency
                0x00000000       0x28 stm32f4xx_ll_utils.c.o
 .text.LL_FLASH_GetLatency
                0x00000000       0x1c stm32f4xx_ll_utils.c.o
 .text.LL_PWR_GetRegulVoltageScaling
                0x00000000       0x1c stm32f4xx_ll_utils.c.o
 .text.LL_Init1msTick
                0x00000000       0x1a stm32f4xx_ll_utils.c.o
 .text.LL_mDelay
                0x00000000       0x4c stm32f4xx_ll_utils.c.o
 .text.LL_SetFlashLatency
                0x00000000      0x184 stm32f4xx_ll_utils.c.o
 .text.LL_PLL_ConfigSystemClock_HSI
                0x00000000       0x74 stm32f4xx_ll_utils.c.o
 .text.LL_PLL_ConfigSystemClock_HSE
                0x00000000       0x84 stm32f4xx_ll_utils.c.o
 .text.UTILS_GetPLLOutputFrequency
                0x00000000       0x4e stm32f4xx_ll_utils.c.o
 .text.UTILS_PLL_IsBusy
                0x00000000       0x3e stm32f4xx_ll_utils.c.o
 .text.UTILS_EnablePLLAndSwitchSystem
                0x00000000       0xb4 stm32f4xx_ll_utils.c.o
 .text          0x00000000        0x0 stm32f4xx_ll_exti.c.o
 .data          0x00000000        0x0 stm32f4xx_ll_exti.c.o
 .bss           0x00000000        0x0 stm32f4xx_ll_exti.c.o
 .text.LL_EXTI_DeInit
                0x00000000       0x3c stm32f4xx_ll_exti.c.o
 .text.LL_EXTI_StructInit
                0x00000000       0x2c stm32f4xx_ll_exti.c.o
 .text          0x00000000        0x0 stm32f4xx_hal_rcc.c.o
 .data          0x00000000        0x0 stm32f4xx_hal_rcc.c.o
 .bss           0x00000000        0x0 stm32f4xx_hal_rcc.c.o
 .text.HAL_RCC_DeInit
                0x00000000       0x10 stm32f4xx_hal_rcc.c.o
 .text.HAL_RCC_OscConfig
                0x00000000      0x500 stm32f4xx_hal_rcc.c.o
 .text.HAL_RCC_ClockConfig
                0x00000000      0x1cc stm32f4xx_hal_rcc.c.o
 .text.HAL_RCC_MCOConfig
                0x00000000       0xd0 stm32f4xx_hal_rcc.c.o
 .text.HAL_RCC_EnableCSS
                0x00000000       0x18 stm32f4xx_hal_rcc.c.o
 .text.HAL_RCC_DisableCSS
                0x00000000       0x18 stm32f4xx_hal_rcc.c.o
 .text.HAL_RCC_GetSysClockFreq
                0x00000000      0x20c stm32f4xx_hal_rcc.c.o
 .text.HAL_RCC_GetPCLK2Freq
                0x00000000       0x28 stm32f4xx_hal_rcc.c.o
 .text.HAL_RCC_GetOscConfig
                0x00000000      0x128 stm32f4xx_hal_rcc.c.o
 .text.HAL_RCC_NMI_IRQHandler
                0x00000000       0x28 stm32f4xx_hal_rcc.c.o
 .text.HAL_RCC_CSSCallback
                0x00000000        0xe stm32f4xx_hal_rcc.c.o
 .text          0x00000000        0x0 stm32f4xx_hal_rcc_ex.c.o
 .data          0x00000000        0x0 stm32f4xx_hal_rcc_ex.c.o
 .bss           0x00000000        0x0 stm32f4xx_hal_rcc_ex.c.o
 .text.HAL_RCCEx_PeriphCLKConfig
                0x00000000      0x654 stm32f4xx_hal_rcc_ex.c.o
 .text.HAL_RCCEx_GetPeriphCLKConfig
                0x00000000      0x18c stm32f4xx_hal_rcc_ex.c.o
 .text.HAL_RCCEx_GetPeriphCLKFreq
                0x00000000      0x494 stm32f4xx_hal_rcc_ex.c.o
 .text.HAL_RCCEx_SelectLSEMode
                0x00000000       0x3c stm32f4xx_hal_rcc_ex.c.o
 .text.HAL_RCCEx_EnablePLLI2S
                0x00000000       0xa0 stm32f4xx_hal_rcc_ex.c.o
 .text.HAL_RCCEx_DisablePLLI2S
                0x00000000       0x44 stm32f4xx_hal_rcc_ex.c.o
 .text.HAL_RCCEx_EnablePLLSAI
                0x00000000       0x9c stm32f4xx_hal_rcc_ex.c.o
 .text.HAL_RCCEx_DisablePLLSAI
                0x00000000       0x48 stm32f4xx_hal_rcc_ex.c.o
 .text.HAL_RCC_GetSysClockFreq
                0x00000000      0x460 stm32f4xx_hal_rcc_ex.c.o
 .text.HAL_RCC_DeInit
                0x00000000      0x1f0 stm32f4xx_hal_rcc_ex.c.o
 .text.HAL_RCC_OscConfig
                0x00000000      0x53c stm32f4xx_hal_rcc_ex.c.o
 .text.HAL_RCC_GetOscConfig
                0x00000000      0x138 stm32f4xx_hal_rcc_ex.c.o
 .debug_info    0x00000000      0x952 stm32f4xx_hal_rcc_ex.c.o
 .debug_abbrev  0x00000000      0x208 stm32f4xx_hal_rcc_ex.c.o
 .debug_aranges
                0x00000000       0x78 stm32f4xx_hal_rcc_ex.c.o
 .debug_rnglists
                0x00000000       0x5e stm32f4xx_hal_rcc_ex.c.o
 .debug_line    0x00000000     0x1099 stm32f4xx_hal_rcc_ex.c.o
 .debug_str     0x00000000      0x85b stm32f4xx_hal_rcc_ex.c.o
 .comment       0x00000000       0x45 stm32f4xx_hal_rcc_ex.c.o
 .debug_frame   0x00000000      0x1e8 stm32f4xx_hal_rcc_ex.c.o
 .ARM.attributes
                0x00000000       0x34 stm32f4xx_hal_rcc_ex.c.o
 .text          0x00000000        0x0 stm32f4xx_hal_flash.c.o
 .data          0x00000000        0x0 stm32f4xx_hal_flash.c.o
 .bss           0x00000000        0x0 stm32f4xx_hal_flash.c.o
 .bss.pFlash    0x00000000       0x20 stm32f4xx_hal_flash.c.o
 .text.HAL_FLASH_Program
                0x00000000       0xa8 stm32f4xx_hal_flash.c.o
 .text.HAL_FLASH_Program_IT
                0x00000000       0x9c stm32f4xx_hal_flash.c.o
 .text.HAL_FLASH_IRQHandler
                0x00000000      0x140 stm32f4xx_hal_flash.c.o
 .text.HAL_FLASH_EndOfOperationCallback
                0x00000000       0x14 stm32f4xx_hal_flash.c.o
 .text.HAL_FLASH_OperationErrorCallback
                0x00000000       0x14 stm32f4xx_hal_flash.c.o
 .text.HAL_FLASH_Unlock
                0x00000000       0x44 stm32f4xx_hal_flash.c.o
 .text.HAL_FLASH_Lock
                0x00000000       0x20 stm32f4xx_hal_flash.c.o
 .text.HAL_FLASH_OB_Unlock
                0x00000000       0x38 stm32f4xx_hal_flash.c.o
 .text.HAL_FLASH_OB_Lock
                0x00000000       0x20 stm32f4xx_hal_flash.c.o
 .text.HAL_FLASH_OB_Launch
                0x00000000       0x28 stm32f4xx_hal_flash.c.o
 .text.HAL_FLASH_GetError
                0x00000000       0x18 stm32f4xx_hal_flash.c.o
 .text.FLASH_WaitForLastOperation
                0x00000000       0x80 stm32f4xx_hal_flash.c.o
 .text.FLASH_Program_DoubleWord
                0x00000000       0x64 stm32f4xx_hal_flash.c.o
 .text.FLASH_Program_Word
                0x00000000       0x44 stm32f4xx_hal_flash.c.o
 .text.FLASH_Program_HalfWord
                0x00000000       0x48 stm32f4xx_hal_flash.c.o
 .text.FLASH_Program_Byte
                0x00000000       0x44 stm32f4xx_hal_flash.c.o
 .text.FLASH_SetErrorCode
                0x00000000       0xcc stm32f4xx_hal_flash.c.o
 .debug_info    0x00000000      0x579 stm32f4xx_hal_flash.c.o
 .debug_abbrev  0x00000000      0x28a stm32f4xx_hal_flash.c.o
 .debug_aranges
                0x00000000       0xa0 stm32f4xx_hal_flash.c.o
 .debug_rnglists
                0x00000000       0x78 stm32f4xx_hal_flash.c.o
 .debug_line    0x00000000      0x6d8 stm32f4xx_hal_flash.c.o
 .debug_str     0x00000000      0x59f stm32f4xx_hal_flash.c.o
 .comment       0x00000000       0x45 stm32f4xx_hal_flash.c.o
 .debug_frame   0x00000000      0x274 stm32f4xx_hal_flash.c.o
 .ARM.attributes
                0x00000000       0x34 stm32f4xx_hal_flash.c.o
 .text          0x00000000        0x0 stm32f4xx_hal_flash_ex.c.o
 .data          0x00000000        0x0 stm32f4xx_hal_flash_ex.c.o
 .bss           0x00000000        0x0 stm32f4xx_hal_flash_ex.c.o
 .text.HAL_FLASHEx_Erase
                0x00000000       0xe0 stm32f4xx_hal_flash_ex.c.o
 .text.HAL_FLASHEx_Erase_IT
                0x00000000       0xac stm32f4xx_hal_flash_ex.c.o
 .text.HAL_FLASHEx_OBProgram
                0x00000000       0xdc stm32f4xx_hal_flash_ex.c.o
 .text.HAL_FLASHEx_OBGetConfig
                0x00000000       0x46 stm32f4xx_hal_flash_ex.c.o
 .text.HAL_FLASHEx_AdvOBProgram
                0x00000000       0x48 stm32f4xx_hal_flash_ex.c.o
 .text.HAL_FLASHEx_AdvOBGetConfig
                0x00000000       0x24 stm32f4xx_hal_flash_ex.c.o
 .text.HAL_FLASHEx_OB_SelectPCROP
                0x00000000       0x34 stm32f4xx_hal_flash_ex.c.o
 .text.HAL_FLASHEx_OB_DeSelectPCROP
                0x00000000       0x30 stm32f4xx_hal_flash_ex.c.o
 .text.FLASH_MassErase
                0x00000000       0x48 stm32f4xx_hal_flash_ex.c.o
 .text.FLASH_Erase_Sector
                0x00000000       0x90 stm32f4xx_hal_flash_ex.c.o
 .text.FLASH_OB_EnableWRP
                0x00000000       0x44 stm32f4xx_hal_flash_ex.c.o
 .text.FLASH_OB_DisableWRP
                0x00000000       0x40 stm32f4xx_hal_flash_ex.c.o
 .text.FLASH_OB_EnablePCROP
                0x00000000       0x40 stm32f4xx_hal_flash_ex.c.o
 .text.FLASH_OB_DisablePCROP
                0x00000000       0x44 stm32f4xx_hal_flash_ex.c.o
 .text.FLASH_OB_RDP_LevelConfig
                0x00000000       0x34 stm32f4xx_hal_flash_ex.c.o
 .text.FLASH_OB_UserConfig
                0x00000000       0x60 stm32f4xx_hal_flash_ex.c.o
 .text.FLASH_OB_BOR_LevelConfig
                0x00000000       0x3c stm32f4xx_hal_flash_ex.c.o
 .text.FLASH_OB_GetUser
                0x00000000       0x20 stm32f4xx_hal_flash_ex.c.o
 .text.FLASH_OB_GetWRP
                0x00000000       0x18 stm32f4xx_hal_flash_ex.c.o
 .text.FLASH_OB_GetRDP
                0x00000000       0x40 stm32f4xx_hal_flash_ex.c.o
 .text.FLASH_OB_GetBOR
                0x00000000       0x20 stm32f4xx_hal_flash_ex.c.o
 .text.FLASH_FlushCaches
                0x00000000       0x8c stm32f4xx_hal_flash_ex.c.o
 .debug_info    0x00000000      0x7d7 stm32f4xx_hal_flash_ex.c.o
 .debug_abbrev  0x00000000      0x26a stm32f4xx_hal_flash_ex.c.o
 .debug_aranges
                0x00000000       0xc8 stm32f4xx_hal_flash_ex.c.o
 .debug_rnglists
                0x00000000       0x96 stm32f4xx_hal_flash_ex.c.o
 .debug_line    0x00000000      0x76f stm32f4xx_hal_flash_ex.c.o
 .debug_str     0x00000000      0x6c2 stm32f4xx_hal_flash_ex.c.o
 .comment       0x00000000       0x45 stm32f4xx_hal_flash_ex.c.o
 .debug_frame   0x00000000      0x334 stm32f4xx_hal_flash_ex.c.o
 .ARM.attributes
                0x00000000       0x34 stm32f4xx_hal_flash_ex.c.o
 .text          0x00000000        0x0 stm32f4xx_hal_flash_ramfunc.c.o
 .data          0x00000000        0x0 stm32f4xx_hal_flash_ramfunc.c.o
 .bss           0x00000000        0x0 stm32f4xx_hal_flash_ramfunc.c.o
 .RamFunc       0x00000000      0x110 stm32f4xx_hal_flash_ramfunc.c.o
 .debug_info    0x00000000      0x368 stm32f4xx_hal_flash_ramfunc.c.o
 .debug_abbrev  0x00000000      0x10c stm32f4xx_hal_flash_ramfunc.c.o
 .debug_aranges
                0x00000000       0x38 stm32f4xx_hal_flash_ramfunc.c.o
 .debug_rnglists
                0x00000000       0x25 stm32f4xx_hal_flash_ramfunc.c.o
 .debug_line    0x00000000      0x2af stm32f4xx_hal_flash_ramfunc.c.o
 .debug_str     0x00000000      0x417 stm32f4xx_hal_flash_ramfunc.c.o
 .comment       0x00000000       0x45 stm32f4xx_hal_flash_ramfunc.c.o
 .debug_frame   0x00000000       0xb0 stm32f4xx_hal_flash_ramfunc.c.o
 .ARM.attributes
                0x00000000       0x34 stm32f4xx_hal_flash_ramfunc.c.o
 .text          0x00000000        0x0 stm32f4xx_hal_gpio.c.o
 .data          0x00000000        0x0 stm32f4xx_hal_gpio.c.o
 .bss           0x00000000        0x0 stm32f4xx_hal_gpio.c.o
 .text.HAL_GPIO_Init
                0x00000000      0x328 stm32f4xx_hal_gpio.c.o
 .text.HAL_GPIO_DeInit
                0x00000000      0x1e8 stm32f4xx_hal_gpio.c.o
 .text.HAL_GPIO_ReadPin
                0x00000000       0x30 stm32f4xx_hal_gpio.c.o
 .text.HAL_GPIO_WritePin
                0x00000000       0x32 stm32f4xx_hal_gpio.c.o
 .text.HAL_GPIO_TogglePin
                0x00000000       0x34 stm32f4xx_hal_gpio.c.o
 .text.HAL_GPIO_LockPin
                0x00000000       0x50 stm32f4xx_hal_gpio.c.o
 .text.HAL_GPIO_EXTI_IRQHandler
                0x00000000       0x30 stm32f4xx_hal_gpio.c.o
 .text.HAL_GPIO_EXTI_Callback
                0x00000000       0x16 stm32f4xx_hal_gpio.c.o
 .debug_info    0x00000000      0x707 stm32f4xx_hal_gpio.c.o
 .debug_abbrev  0x00000000      0x1d2 stm32f4xx_hal_gpio.c.o
 .debug_aranges
                0x00000000       0x58 stm32f4xx_hal_gpio.c.o
 .debug_rnglists
                0x00000000       0x3f stm32f4xx_hal_gpio.c.o
 .debug_line    0x00000000      0x6c9 stm32f4xx_hal_gpio.c.o
 .debug_str     0x00000000      0x55a stm32f4xx_hal_gpio.c.o
 .comment       0x00000000       0x45 stm32f4xx_hal_gpio.c.o
 .debug_frame   0x00000000      0x14c stm32f4xx_hal_gpio.c.o
 .ARM.attributes
                0x00000000       0x34 stm32f4xx_hal_gpio.c.o
 .text          0x00000000        0x0 stm32f4xx_hal_dma_ex.c.o
 .data          0x00000000        0x0 stm32f4xx_hal_dma_ex.c.o
 .bss           0x00000000        0x0 stm32f4xx_hal_dma_ex.c.o
 .text.HAL_DMAEx_MultiBufferStart
                0x00000000       0x96 stm32f4xx_hal_dma_ex.c.o
 .text.HAL_DMAEx_MultiBufferStart_IT
                0x00000000     0x1290 stm32f4xx_hal_dma_ex.c.o
 .text.HAL_DMAEx_ChangeMemory
                0x00000000       0x34 stm32f4xx_hal_dma_ex.c.o
 .text.DMA_MultiBufferSetConfig
                0x00000000       0x4c stm32f4xx_hal_dma_ex.c.o
 .debug_info    0x00000000      0x4db stm32f4xx_hal_dma_ex.c.o
 .debug_abbrev  0x00000000      0x1a1 stm32f4xx_hal_dma_ex.c.o
 .debug_aranges
                0x00000000       0x38 stm32f4xx_hal_dma_ex.c.o
 .debug_rnglists
                0x00000000       0x27 stm32f4xx_hal_dma_ex.c.o
 .debug_line    0x00000000      0xf0a stm32f4xx_hal_dma_ex.c.o
 .debug_str     0x00000000      0x59e stm32f4xx_hal_dma_ex.c.o
 .comment       0x00000000       0x45 stm32f4xx_hal_dma_ex.c.o
 .debug_frame   0x00000000       0xac stm32f4xx_hal_dma_ex.c.o
 .ARM.attributes
                0x00000000       0x34 stm32f4xx_hal_dma_ex.c.o
 .text          0x00000000        0x0 stm32f4xx_hal_dma.c.o
 .data          0x00000000        0x0 stm32f4xx_hal_dma.c.o
 .bss           0x00000000        0x0 stm32f4xx_hal_dma.c.o
 .text.HAL_DMA_Init
                0x00000000      0x15c stm32f4xx_hal_dma.c.o
 .text.HAL_DMA_DeInit
                0x00000000       0xbc stm32f4xx_hal_dma.c.o
 .text.HAL_DMA_Start
                0x00000000       0x76 stm32f4xx_hal_dma.c.o
 .text.HAL_DMA_Start_IT
                0x00000000       0xb0 stm32f4xx_hal_dma.c.o
 .text.HAL_DMA_Abort
                0x00000000       0xe0 stm32f4xx_hal_dma.c.o
 .text.HAL_DMA_Abort_IT
                0x00000000       0x44 stm32f4xx_hal_dma.c.o
 .text.HAL_DMA_PollForTransfer
                0x00000000      0x1be stm32f4xx_hal_dma.c.o
 .text.HAL_DMA_IRQHandler
                0x00000000      0x314 stm32f4xx_hal_dma.c.o
 .text.HAL_DMA_RegisterCallback
                0x00000000       0xa8 stm32f4xx_hal_dma.c.o
 .text.HAL_DMA_UnRegisterCallback
                0x00000000       0xd4 stm32f4xx_hal_dma.c.o
 .text.HAL_DMA_GetState
                0x00000000       0x1c stm32f4xx_hal_dma.c.o
 .text.HAL_DMA_GetError
                0x00000000       0x18 stm32f4xx_hal_dma.c.o
 .text.DMA_SetConfig
                0x00000000       0x5c stm32f4xx_hal_dma.c.o
 .text.DMA_CalcBaseAndBitshift
                0x00000000       0x6c stm32f4xx_hal_dma.c.o
 .text.DMA_CheckFifoParam
                0x00000000       0xf8 stm32f4xx_hal_dma.c.o
 .rodata.flagBitshiftOffset.0
                0x00000000        0x8 stm32f4xx_hal_dma.c.o
 .debug_info    0x00000000      0x8e3 stm32f4xx_hal_dma.c.o
 .debug_abbrev  0x00000000      0x262 stm32f4xx_hal_dma.c.o
 .debug_aranges
                0x00000000       0x90 stm32f4xx_hal_dma.c.o
 .debug_rnglists
                0x00000000       0x70 stm32f4xx_hal_dma.c.o
 .debug_line    0x00000000      0xb19 stm32f4xx_hal_dma.c.o
 .debug_str     0x00000000      0x7cb stm32f4xx_hal_dma.c.o
 .comment       0x00000000       0x45 stm32f4xx_hal_dma.c.o
 .debug_frame   0x00000000      0x250 stm32f4xx_hal_dma.c.o
 .ARM.attributes
                0x00000000       0x34 stm32f4xx_hal_dma.c.o
 .text          0x00000000        0x0 stm32f4xx_hal_pwr.c.o
 .data          0x00000000        0x0 stm32f4xx_hal_pwr.c.o
 .bss           0x00000000        0x0 stm32f4xx_hal_pwr.c.o
 .text.HAL_PWR_DeInit
                0x00000000       0x2c stm32f4xx_hal_pwr.c.o
 .text.HAL_PWR_EnableBkUpAccess
                0x00000000       0x28 stm32f4xx_hal_pwr.c.o
 .text.HAL_PWR_DisableBkUpAccess
                0x00000000       0x28 stm32f4xx_hal_pwr.c.o
 .text.HAL_PWR_ConfigPVD
                0x00000000       0xc0 stm32f4xx_hal_pwr.c.o
 .text.HAL_PWR_EnablePVD
                0x00000000       0x18 stm32f4xx_hal_pwr.c.o
 .text.HAL_PWR_DisablePVD
                0x00000000       0x18 stm32f4xx_hal_pwr.c.o
 .text.HAL_PWR_EnableWakeUpPin
                0x00000000       0x24 stm32f4xx_hal_pwr.c.o
 .text.HAL_PWR_DisableWakeUpPin
                0x00000000       0x28 stm32f4xx_hal_pwr.c.o
 .text.HAL_PWR_EnterSLEEPMode
                0x00000000       0x40 stm32f4xx_hal_pwr.c.o
 .text.HAL_PWR_EnterSTOPMode
                0x00000000       0x60 stm32f4xx_hal_pwr.c.o
 .text.HAL_PWR_EnterSTANDBYMode
                0x00000000       0x30 stm32f4xx_hal_pwr.c.o
 .text.HAL_PWR_PVD_IRQHandler
                0x00000000       0x24 stm32f4xx_hal_pwr.c.o
 .text.HAL_PWR_PVDCallback
                0x00000000        0xe stm32f4xx_hal_pwr.c.o
 .text.HAL_PWR_EnableSleepOnExit
                0x00000000       0x20 stm32f4xx_hal_pwr.c.o
 .text.HAL_PWR_DisableSleepOnExit
                0x00000000       0x20 stm32f4xx_hal_pwr.c.o
 .text.HAL_PWR_EnableSEVOnPend
                0x00000000       0x20 stm32f4xx_hal_pwr.c.o
 .text.HAL_PWR_DisableSEVOnPend
                0x00000000       0x20 stm32f4xx_hal_pwr.c.o
 .debug_info    0x00000000      0x72d stm32f4xx_hal_pwr.c.o
 .debug_abbrev  0x00000000      0x19a stm32f4xx_hal_pwr.c.o
 .debug_aranges
                0x00000000       0xa0 stm32f4xx_hal_pwr.c.o
 .debug_rnglists
                0x00000000       0x74 stm32f4xx_hal_pwr.c.o
 .debug_line    0x00000000      0x4e4 stm32f4xx_hal_pwr.c.o
 .debug_str     0x00000000      0x5bb stm32f4xx_hal_pwr.c.o
 .comment       0x00000000       0x45 stm32f4xx_hal_pwr.c.o
 .debug_frame   0x00000000      0x264 stm32f4xx_hal_pwr.c.o
 .ARM.attributes
                0x00000000       0x34 stm32f4xx_hal_pwr.c.o
 .text          0x00000000        0x0 stm32f4xx_hal_pwr_ex.c.o
 .data          0x00000000        0x0 stm32f4xx_hal_pwr_ex.c.o
 .bss           0x00000000        0x0 stm32f4xx_hal_pwr_ex.c.o
 .text.HAL_PWREx_EnableBkUpReg
                0x00000000       0x4c stm32f4xx_hal_pwr_ex.c.o
 .text.HAL_PWREx_DisableBkUpReg
                0x00000000       0x4c stm32f4xx_hal_pwr_ex.c.o
 .text.HAL_PWREx_EnableFlashPowerDown
                0x00000000       0x18 stm32f4xx_hal_pwr_ex.c.o
 .text.HAL_PWREx_DisableFlashPowerDown
                0x00000000       0x18 stm32f4xx_hal_pwr_ex.c.o
 .text.HAL_PWREx_GetVoltageRange
                0x00000000       0x1c stm32f4xx_hal_pwr_ex.c.o
 .text.HAL_PWREx_ControlVoltageScaling
                0x00000000       0xf4 stm32f4xx_hal_pwr_ex.c.o
 .text.HAL_PWREx_EnableOverDrive
                0x00000000       0xa0 stm32f4xx_hal_pwr_ex.c.o
 .text.HAL_PWREx_DisableOverDrive
                0x00000000       0xa0 stm32f4xx_hal_pwr_ex.c.o
 .text.HAL_PWREx_EnterUnderDriveSTOPMode
                0x00000000       0xa4 stm32f4xx_hal_pwr_ex.c.o
 .debug_info    0x00000000      0x6d6 stm32f4xx_hal_pwr_ex.c.o
 .debug_abbrev  0x00000000      0x1cd stm32f4xx_hal_pwr_ex.c.o
 .debug_aranges
                0x00000000       0x60 stm32f4xx_hal_pwr_ex.c.o
 .debug_rnglists
                0x00000000       0x47 stm32f4xx_hal_pwr_ex.c.o
 .debug_line    0x00000000      0x556 stm32f4xx_hal_pwr_ex.c.o
 .debug_str     0x00000000      0x545 stm32f4xx_hal_pwr_ex.c.o
 .comment       0x00000000       0x45 stm32f4xx_hal_pwr_ex.c.o
 .debug_frame   0x00000000      0x14c stm32f4xx_hal_pwr_ex.c.o
 .ARM.attributes
                0x00000000       0x34 stm32f4xx_hal_pwr_ex.c.o
 .text          0x00000000        0x0 stm32f4xx_hal_cortex.c.o
 .data          0x00000000        0x0 stm32f4xx_hal_cortex.c.o
 .bss           0x00000000        0x0 stm32f4xx_hal_cortex.c.o
 .text.__NVIC_DisableIRQ
                0x00000000       0x48 stm32f4xx_hal_cortex.c.o
 .text.__NVIC_GetPendingIRQ
                0x00000000       0x44 stm32f4xx_hal_cortex.c.o
 .text.__NVIC_SetPendingIRQ
                0x00000000       0x3c stm32f4xx_hal_cortex.c.o
 .text.__NVIC_ClearPendingIRQ
                0x00000000       0x3c stm32f4xx_hal_cortex.c.o
 .text.__NVIC_GetActive
                0x00000000       0x44 stm32f4xx_hal_cortex.c.o
 .text.__NVIC_GetPriority
                0x00000000       0x50 stm32f4xx_hal_cortex.c.o
 .text.NVIC_DecodePriority
                0x00000000       0x6e stm32f4xx_hal_cortex.c.o
 .text.__NVIC_SystemReset
                0x00000000       0x2c stm32f4xx_hal_cortex.c.o
 .text.SysTick_Config
                0x00000000       0x44 stm32f4xx_hal_cortex.c.o
 .text.HAL_NVIC_DisableIRQ
                0x00000000       0x1c stm32f4xx_hal_cortex.c.o
 .text.HAL_NVIC_SystemReset
                0x00000000        0x8 stm32f4xx_hal_cortex.c.o
 .text.HAL_SYSTICK_Config
                0x00000000       0x18 stm32f4xx_hal_cortex.c.o
 .text.HAL_MPU_Disable
                0x00000000       0x30 stm32f4xx_hal_cortex.c.o
 .text.HAL_MPU_Enable
                0x00000000       0x40 stm32f4xx_hal_cortex.c.o
 .text.HAL_MPU_ConfigRegion
                0x00000000       0x88 stm32f4xx_hal_cortex.c.o
 .text.HAL_CORTEX_ClearEvent
                0x00000000       0x12 stm32f4xx_hal_cortex.c.o
 .text.HAL_NVIC_GetPriorityGrouping
                0x00000000        0xe stm32f4xx_hal_cortex.c.o
 .text.HAL_NVIC_GetPriority
                0x00000000       0x2c stm32f4xx_hal_cortex.c.o
 .text.HAL_NVIC_SetPendingIRQ
                0x00000000       0x1c stm32f4xx_hal_cortex.c.o
 .text.HAL_NVIC_GetPendingIRQ
                0x00000000       0x1e stm32f4xx_hal_cortex.c.o
 .text.HAL_NVIC_ClearPendingIRQ
                0x00000000       0x1c stm32f4xx_hal_cortex.c.o
 .text.HAL_NVIC_GetActive
                0x00000000       0x1e stm32f4xx_hal_cortex.c.o
 .text.HAL_SYSTICK_CLKSourceConfig
                0x00000000       0x38 stm32f4xx_hal_cortex.c.o
 .text.HAL_SYSTICK_IRQHandler
                0x00000000        0xc stm32f4xx_hal_cortex.c.o
 .text.HAL_SYSTICK_Callback
                0x00000000        0xe stm32f4xx_hal_cortex.c.o
 .text          0x00000000        0x0 stm32f4xx_hal.c.o
 .data          0x00000000        0x0 stm32f4xx_hal.c.o
 .bss           0x00000000        0x0 stm32f4xx_hal.c.o
 .text.HAL_DeInit
                0x00000000       0x5c stm32f4xx_hal.c.o
 .text.HAL_MspInit
                0x00000000        0xe stm32f4xx_hal.c.o
 .text.HAL_MspDeInit
                0x00000000        0xe stm32f4xx_hal.c.o
 .text.HAL_InitTick
                0x00000000       0x60 stm32f4xx_hal.c.o
 .text.HAL_GetTickPrio
                0x00000000       0x18 stm32f4xx_hal.c.o
 .text.HAL_SetTickFreq
                0x00000000       0x50 stm32f4xx_hal.c.o
 .text.HAL_GetTickFreq
                0x00000000       0x18 stm32f4xx_hal.c.o
 .text.HAL_Delay
                0x00000000       0x48 stm32f4xx_hal.c.o
 .text.HAL_SuspendTick
                0x00000000       0x20 stm32f4xx_hal.c.o
 .text.HAL_ResumeTick
                0x00000000       0x20 stm32f4xx_hal.c.o
 .text.HAL_GetHalVersion
                0x00000000       0x14 stm32f4xx_hal.c.o
 .text.HAL_GetREVID
                0x00000000       0x18 stm32f4xx_hal.c.o
 .text.HAL_GetDEVID
                0x00000000       0x1c stm32f4xx_hal.c.o
 .text.HAL_DBGMCU_EnableDBGSleepMode
                0x00000000       0x20 stm32f4xx_hal.c.o
 .text.HAL_DBGMCU_DisableDBGSleepMode
                0x00000000       0x20 stm32f4xx_hal.c.o
 .text.HAL_DBGMCU_EnableDBGStopMode
                0x00000000       0x20 stm32f4xx_hal.c.o
 .text.HAL_DBGMCU_DisableDBGStopMode
                0x00000000       0x20 stm32f4xx_hal.c.o
 .text.HAL_DBGMCU_EnableDBGStandbyMode
                0x00000000       0x20 stm32f4xx_hal.c.o
 .text.HAL_DBGMCU_DisableDBGStandbyMode
                0x00000000       0x20 stm32f4xx_hal.c.o
 .text.HAL_EnableCompensationCell
                0x00000000       0x18 stm32f4xx_hal.c.o
 .text.HAL_DisableCompensationCell
                0x00000000       0x18 stm32f4xx_hal.c.o
 .text.HAL_GetUIDw0
                0x00000000       0x18 stm32f4xx_hal.c.o
 .text.HAL_GetUIDw1
                0x00000000       0x18 stm32f4xx_hal.c.o
 .text.HAL_GetUIDw2
                0x00000000       0x18 stm32f4xx_hal.c.o
 .text          0x00000000        0x0 stm32f4xx_hal_exti.c.o
 .data          0x00000000        0x0 stm32f4xx_hal_exti.c.o
 .bss           0x00000000        0x0 stm32f4xx_hal_exti.c.o
 .text.HAL_EXTI_SetConfigLine
                0x00000000      0x150 stm32f4xx_hal_exti.c.o
 .text.HAL_EXTI_GetConfigLine
                0x00000000       0xf4 stm32f4xx_hal_exti.c.o
 .text.HAL_EXTI_ClearConfigLine
                0x00000000       0xc0 stm32f4xx_hal_exti.c.o
 .text.HAL_EXTI_RegisterCallback
                0x00000000       0x34 stm32f4xx_hal_exti.c.o
 .text.HAL_EXTI_GetHandle
                0x00000000       0x28 stm32f4xx_hal_exti.c.o
 .text.HAL_EXTI_IRQHandler
                0x00000000       0x48 stm32f4xx_hal_exti.c.o
 .text.HAL_EXTI_GetPending
                0x00000000       0x40 stm32f4xx_hal_exti.c.o
 .text.HAL_EXTI_ClearPending
                0x00000000       0x30 stm32f4xx_hal_exti.c.o
 .text.HAL_EXTI_GenerateSWI
                0x00000000       0x30 stm32f4xx_hal_exti.c.o
 .debug_info    0x00000000      0x508 stm32f4xx_hal_exti.c.o
 .debug_abbrev  0x00000000      0x1c4 stm32f4xx_hal_exti.c.o
 .debug_aranges
                0x00000000       0x60 stm32f4xx_hal_exti.c.o
 .debug_rnglists
                0x00000000       0x46 stm32f4xx_hal_exti.c.o
 .debug_line    0x00000000      0x57e stm32f4xx_hal_exti.c.o
 .debug_str     0x00000000      0x445 stm32f4xx_hal_exti.c.o
 .comment       0x00000000       0x45 stm32f4xx_hal_exti.c.o
 .debug_frame   0x00000000      0x174 stm32f4xx_hal_exti.c.o
 .ARM.attributes
                0x00000000       0x34 stm32f4xx_hal_exti.c.o
 .text          0x00000000        0x0 stm32f4xx_ll_usart.c.o
 .data          0x00000000        0x0 stm32f4xx_ll_usart.c.o
 .bss           0x00000000        0x0 stm32f4xx_ll_usart.c.o
 .text.LL_USART_DisableSCLKOutput
                0x00000000       0x20 stm32f4xx_ll_usart.c.o
 .text.LL_APB1_GRP1_ForceReset
                0x00000000       0x24 stm32f4xx_ll_usart.c.o
 .text.LL_APB1_GRP1_ReleaseReset
                0x00000000       0x28 stm32f4xx_ll_usart.c.o
 .text.LL_APB2_GRP1_ForceReset
                0x00000000       0x24 stm32f4xx_ll_usart.c.o
 .text.LL_APB2_GRP1_ReleaseReset
                0x00000000       0x28 stm32f4xx_ll_usart.c.o
 .text.LL_USART_DeInit
                0x00000000       0xc8 stm32f4xx_ll_usart.c.o
 .text.LL_USART_StructInit
                0x00000000       0x40 stm32f4xx_ll_usart.c.o
 .text.LL_USART_ClockInit
                0x00000000       0x5c stm32f4xx_ll_usart.c.o
 .text.LL_USART_ClockStructInit
                0x00000000       0x2c stm32f4xx_ll_usart.c.o
 .text          0x00000000        0x0 system_stm32f4xx.c.o
 .data          0x00000000        0x0 system_stm32f4xx.c.o
 .bss           0x00000000        0x0 system_stm32f4xx.c.o
 .text.SystemCoreClockUpdate
                0x00000000      0x100 system_stm32f4xx.c.o
 .text          0x00000000        0x0 syscalls.c.o
 .data          0x00000000        0x0 syscalls.c.o
 .bss           0x00000000        0x0 syscalls.c.o
 .bss.__env     0x00000000        0x4 syscalls.c.o
 .data.environ  0x00000000        0x4 syscalls.c.o
 .text.initialise_monitor_handles
                0x00000000        0xe syscalls.c.o
 .text._getpid  0x00000000       0x10 syscalls.c.o
 .text._kill    0x00000000       0x20 syscalls.c.o
 .text._exit    0x00000000       0x16 syscalls.c.o
 .text._read    0x00000000       0x3a syscalls.c.o
 .text._write   0x00000000       0x38 syscalls.c.o
 .text._close   0x00000000       0x18 syscalls.c.o
 .text._fstat   0x00000000       0x20 syscalls.c.o
 .text._isatty  0x00000000       0x16 syscalls.c.o
 .text._lseek   0x00000000       0x1a syscalls.c.o
 .text._open    0x00000000       0x1c syscalls.c.o
 .text._wait    0x00000000       0x1e syscalls.c.o
 .text._unlink  0x00000000       0x1e syscalls.c.o
 .text._times   0x00000000       0x18 syscalls.c.o
 .text._stat    0x00000000       0x20 syscalls.c.o
 .text._link    0x00000000       0x20 syscalls.c.o
 .text._fork    0x00000000       0x16 syscalls.c.o
 .text._execve  0x00000000       0x22 syscalls.c.o
 .debug_info    0x00000000      0x69f syscalls.c.o
 .debug_abbrev  0x00000000      0x1b4 syscalls.c.o
 .debug_aranges
                0x00000000       0xa8 syscalls.c.o
 .debug_rnglists
                0x00000000       0x79 syscalls.c.o
 .debug_line    0x00000000      0x3f8 syscalls.c.o
 .debug_str     0x00000000      0x468 syscalls.c.o
 .comment       0x00000000       0x45 syscalls.c.o
 .debug_frame   0x00000000      0x2ac syscalls.c.o
 .ARM.attributes
                0x00000000       0x34 syscalls.c.o
 .text          0x00000000        0x0 sysmem.c.o
 .data          0x00000000        0x0 sysmem.c.o
 .bss           0x00000000        0x0 sysmem.c.o
 .bss.__sbrk_heap_end
                0x00000000        0x4 sysmem.c.o
 .text._sbrk    0x00000000       0x6c sysmem.c.o
 .debug_info    0x00000000      0x164 sysmem.c.o
 .debug_abbrev  0x00000000       0xba sysmem.c.o
 .debug_aranges
                0x00000000       0x20 sysmem.c.o
 .debug_rnglists
                0x00000000       0x13 sysmem.c.o
 .debug_line    0x00000000      0x25a sysmem.c.o
 .debug_str     0x00000000      0x294 sysmem.c.o
 .comment       0x00000000       0x45 sysmem.c.o
 .debug_frame   0x00000000       0x34 sysmem.c.o
 .ARM.attributes
                0x00000000       0x34 sysmem.c.o
 .text          0x00000000       0x14 startup_stm32f446retx.s.o
 .data          0x00000000        0x0 startup_stm32f446retx.s.o
 .bss           0x00000000        0x0 startup_stm32f446retx.s.o
 .text          0x00000000        0x0 ../../../../slprj/ert/BMS_MCU_CODE/BMS_MCU_CODE_rtwlib.lib(BMS_MCU_CODE.c.o)
 .data          0x00000000        0x0 ../../../../slprj/ert/BMS_MCU_CODE/BMS_MCU_CODE_rtwlib.lib(BMS_MCU_CODE.c.o)
 .bss           0x00000000        0x0 ../../../../slprj/ert/BMS_MCU_CODE/BMS_MCU_CODE_rtwlib.lib(BMS_MCU_CODE.c.o)
 .text          0x00000000        0x0 C:/Users/odona/OneDrive/Yara/Thesis/BMS_Thesis/slprj/ert/_sharedutils/rtwshared.lib(const_params.c.o)
 .data          0x00000000        0x0 C:/Users/odona/OneDrive/Yara/Thesis/BMS_Thesis/slprj/ert/_sharedutils/rtwshared.lib(const_params.c.o)
 .bss           0x00000000        0x0 C:/Users/odona/OneDrive/Yara/Thesis/BMS_Thesis/slprj/ert/_sharedutils/rtwshared.lib(const_params.c.o)
 .text          0x00000000        0x0 C:/Users/odona/OneDrive/Yara/Thesis/BMS_Thesis/slprj/ert/_sharedutils/rtwshared.lib(intrp2d_fu32fl_pw.c.o)
 .data          0x00000000        0x0 C:/Users/odona/OneDrive/Yara/Thesis/BMS_Thesis/slprj/ert/_sharedutils/rtwshared.lib(intrp2d_fu32fl_pw.c.o)
 .bss           0x00000000        0x0 C:/Users/odona/OneDrive/Yara/Thesis/BMS_Thesis/slprj/ert/_sharedutils/rtwshared.lib(intrp2d_fu32fl_pw.c.o)
 .text          0x00000000        0x0 C:/Users/odona/OneDrive/Yara/Thesis/BMS_Thesis/slprj/ert/_sharedutils/rtwshared.lib(look1_binlxpw.c.o)
 .data          0x00000000        0x0 C:/Users/odona/OneDrive/Yara/Thesis/BMS_Thesis/slprj/ert/_sharedutils/rtwshared.lib(look1_binlxpw.c.o)
 .bss           0x00000000        0x0 C:/Users/odona/OneDrive/Yara/Thesis/BMS_Thesis/slprj/ert/_sharedutils/rtwshared.lib(look1_binlxpw.c.o)
 .text          0x00000000        0x0 C:/Users/odona/OneDrive/Yara/Thesis/BMS_Thesis/slprj/ert/_sharedutils/rtwshared.lib(maximum_TTkd84nS.c.o)
 .data          0x00000000        0x0 C:/Users/odona/OneDrive/Yara/Thesis/BMS_Thesis/slprj/ert/_sharedutils/rtwshared.lib(maximum_TTkd84nS.c.o)
 .bss           0x00000000        0x0 C:/Users/odona/OneDrive/Yara/Thesis/BMS_Thesis/slprj/ert/_sharedutils/rtwshared.lib(maximum_TTkd84nS.c.o)
 .text          0x00000000        0x0 C:/Users/odona/OneDrive/Yara/Thesis/BMS_Thesis/slprj/ert/_sharedutils/rtwshared.lib(minimum_ruU8vKTP.c.o)
 .data          0x00000000        0x0 C:/Users/odona/OneDrive/Yara/Thesis/BMS_Thesis/slprj/ert/_sharedutils/rtwshared.lib(minimum_ruU8vKTP.c.o)
 .bss           0x00000000        0x0 C:/Users/odona/OneDrive/Yara/Thesis/BMS_Thesis/slprj/ert/_sharedutils/rtwshared.lib(minimum_ruU8vKTP.c.o)
 .text          0x00000000        0x0 C:/Users/odona/OneDrive/Yara/Thesis/BMS_Thesis/slprj/ert/_sharedutils/rtwshared.lib(plook_u32ff_binx.c.o)
 .data          0x00000000        0x0 C:/Users/odona/OneDrive/Yara/Thesis/BMS_Thesis/slprj/ert/_sharedutils/rtwshared.lib(plook_u32ff_binx.c.o)
 .bss           0x00000000        0x0 C:/Users/odona/OneDrive/Yara/Thesis/BMS_Thesis/slprj/ert/_sharedutils/rtwshared.lib(plook_u32ff_binx.c.o)
 .text          0x00000000        0x0 C:/Users/odona/OneDrive/Yara/Thesis/BMS_Thesis/slprj/ert/_sharedutils/rtwshared.lib(rt_nonfinite.c.o)
 .data          0x00000000        0x0 C:/Users/odona/OneDrive/Yara/Thesis/BMS_Thesis/slprj/ert/_sharedutils/rtwshared.lib(rt_nonfinite.c.o)
 .bss           0x00000000        0x0 C:/Users/odona/OneDrive/Yara/Thesis/BMS_Thesis/slprj/ert/_sharedutils/rtwshared.lib(rt_nonfinite.c.o)
 .data.rtNaN    0x00000000        0x8 C:/Users/odona/OneDrive/Yara/Thesis/BMS_Thesis/slprj/ert/_sharedutils/rtwshared.lib(rt_nonfinite.c.o)
 .data.rtInf    0x00000000        0x8 C:/Users/odona/OneDrive/Yara/Thesis/BMS_Thesis/slprj/ert/_sharedutils/rtwshared.lib(rt_nonfinite.c.o)
 .data.rtMinusInf
                0x00000000        0x8 C:/Users/odona/OneDrive/Yara/Thesis/BMS_Thesis/slprj/ert/_sharedutils/rtwshared.lib(rt_nonfinite.c.o)
 .data.rtNaNF   0x00000000        0x4 C:/Users/odona/OneDrive/Yara/Thesis/BMS_Thesis/slprj/ert/_sharedutils/rtwshared.lib(rt_nonfinite.c.o)
 .data.rtInfF   0x00000000        0x4 C:/Users/odona/OneDrive/Yara/Thesis/BMS_Thesis/slprj/ert/_sharedutils/rtwshared.lib(rt_nonfinite.c.o)
 .data.rtMinusInfF
                0x00000000        0x4 C:/Users/odona/OneDrive/Yara/Thesis/BMS_Thesis/slprj/ert/_sharedutils/rtwshared.lib(rt_nonfinite.c.o)
 .text.rtIsInf  0x00000000       0x5c C:/Users/odona/OneDrive/Yara/Thesis/BMS_Thesis/slprj/ert/_sharedutils/rtwshared.lib(rt_nonfinite.c.o)
 .text.rtIsInfF
                0x00000000       0x44 C:/Users/odona/OneDrive/Yara/Thesis/BMS_Thesis/slprj/ert/_sharedutils/rtwshared.lib(rt_nonfinite.c.o)
 .text.rtIsNaN  0x00000000       0x2a C:/Users/odona/OneDrive/Yara/Thesis/BMS_Thesis/slprj/ert/_sharedutils/rtwshared.lib(rt_nonfinite.c.o)
 .text          0x00000000        0x0 C:/Users/odona/OneDrive/Yara/Thesis/BMS_Thesis/slprj/ert/_sharedutils/rtwshared.lib(binsearch_u32f.c.o)
 .data          0x00000000        0x0 C:/Users/odona/OneDrive/Yara/Thesis/BMS_Thesis/slprj/ert/_sharedutils/rtwshared.lib(binsearch_u32f.c.o)
 .bss           0x00000000        0x0 C:/Users/odona/OneDrive/Yara/Thesis/BMS_Thesis/slprj/ert/_sharedutils/rtwshared.lib(binsearch_u32f.c.o)
 .text          0x00000000        0x0 C:/Users/odona/OneDrive/Yara/Thesis/BMS_Thesis/slprj/ert/BMS_MCU_CODE/coderassumptions/lib/BMS_MCU_CODE_ca.lib(BMS_MCU_CODE_ca.c.o)
 .data          0x00000000        0x0 C:/Users/odona/OneDrive/Yara/Thesis/BMS_Thesis/slprj/ert/BMS_MCU_CODE/coderassumptions/lib/BMS_MCU_CODE_ca.lib(BMS_MCU_CODE_ca.c.o)
 .bss           0x00000000        0x0 C:/Users/odona/OneDrive/Yara/Thesis/BMS_Thesis/slprj/ert/BMS_MCU_CODE/coderassumptions/lib/BMS_MCU_CODE_ca.lib(BMS_MCU_CODE_ca.c.o)
 .rodata.numberOfImportedTypes
                0x00000000        0x4 C:/Users/odona/OneDrive/Yara/Thesis/BMS_Thesis/slprj/ert/BMS_MCU_CODE/coderassumptions/lib/BMS_MCU_CODE_ca.lib(BMS_MCU_CODE_ca.c.o)
 .text          0x00000000        0x0 C:/Users/odona/OneDrive/Yara/Thesis/BMS_Thesis/slprj/ert/BMS_MCU_CODE/coderassumptions/lib/BMS_MCU_CODE_ca.lib(coder_assumptions_hwimpl.c.o)
 .data          0x00000000        0x0 C:/Users/odona/OneDrive/Yara/Thesis/BMS_Thesis/slprj/ert/BMS_MCU_CODE/coderassumptions/lib/BMS_MCU_CODE_ca.lib(coder_assumptions_hwimpl.c.o)
 .bss           0x00000000        0x0 C:/Users/odona/OneDrive/Yara/Thesis/BMS_Thesis/slprj/ert/BMS_MCU_CODE/coderassumptions/lib/BMS_MCU_CODE_ca.lib(coder_assumptions_hwimpl.c.o)
 .text          0x00000000        0x0 C:/Users/odona/OneDrive/Yara/Thesis/BMS_Thesis/slprj/ert/BMS_MCU_CODE/coderassumptions/lib/BMS_MCU_CODE_ca.lib(coder_assumptions_flt.c.o)
 .data          0x00000000        0x0 C:/Users/odona/OneDrive/Yara/Thesis/BMS_Thesis/slprj/ert/BMS_MCU_CODE/coderassumptions/lib/BMS_MCU_CODE_ca.lib(coder_assumptions_flt.c.o)
 .bss           0x00000000        0x0 C:/Users/odona/OneDrive/Yara/Thesis/BMS_Thesis/slprj/ert/BMS_MCU_CODE/coderassumptions/lib/BMS_MCU_CODE_ca.lib(coder_assumptions_flt.c.o)
 .data.realmin  0x00000000        0x8 C:/Users/odona/OneDrive/Yara/Thesis/BMS_Thesis/slprj/ert/BMS_MCU_CODE/coderassumptions/lib/BMS_MCU_CODE_ca.lib(coder_assumptions_flt.c.o)
 .text          0x00000000        0x0 C:/ProgramData/MATLAB/SupportPackages/R2025b/3P.instrset/gnuarm-armcortex.instrset/win/bin/../lib/gcc/arm-none-eabi/13.2.1/thumb/v7e-m+fp/hard\libm.a(libm_a-s_fmin.o)
 .data          0x00000000        0x0 C:/ProgramData/MATLAB/SupportPackages/R2025b/3P.instrset/gnuarm-armcortex.instrset/win/bin/../lib/gcc/arm-none-eabi/13.2.1/thumb/v7e-m+fp/hard\libm.a(libm_a-s_fmin.o)
 .bss           0x00000000        0x0 C:/ProgramData/MATLAB/SupportPackages/R2025b/3P.instrset/gnuarm-armcortex.instrset/win/bin/../lib/gcc/arm-none-eabi/13.2.1/thumb/v7e-m+fp/hard\libm.a(libm_a-s_fmin.o)
 .text          0x00000000        0x0 C:/ProgramData/MATLAB/SupportPackages/R2025b/3P.instrset/gnuarm-armcortex.instrset/win/bin/../lib/gcc/arm-none-eabi/13.2.1/thumb/v7e-m+fp/hard\libm.a(libm_a-s_fpclassify.o)
 .data          0x00000000        0x0 C:/ProgramData/MATLAB/SupportPackages/R2025b/3P.instrset/gnuarm-armcortex.instrset/win/bin/../lib/gcc/arm-none-eabi/13.2.1/thumb/v7e-m+fp/hard\libm.a(libm_a-s_fpclassify.o)
 .bss           0x00000000        0x0 C:/ProgramData/MATLAB/SupportPackages/R2025b/3P.instrset/gnuarm-armcortex.instrset/win/bin/../lib/gcc/arm-none-eabi/13.2.1/thumb/v7e-m+fp/hard\libm.a(libm_a-s_fpclassify.o)
 .text          0x00000000        0x0 C:/ProgramData/MATLAB/SupportPackages/R2025b/3P.instrset/gnuarm-armcortex.instrset/win/bin/../lib/gcc/arm-none-eabi/13.2.1/thumb/v7e-m+fp/hard\libm.a(libm_a-sf_fmax.o)
 .data          0x00000000        0x0 C:/ProgramData/MATLAB/SupportPackages/R2025b/3P.instrset/gnuarm-armcortex.instrset/win/bin/../lib/gcc/arm-none-eabi/13.2.1/thumb/v7e-m+fp/hard\libm.a(libm_a-sf_fmax.o)
 .bss           0x00000000        0x0 C:/ProgramData/MATLAB/SupportPackages/R2025b/3P.instrset/gnuarm-armcortex.instrset/win/bin/../lib/gcc/arm-none-eabi/13.2.1/thumb/v7e-m+fp/hard\libm.a(libm_a-sf_fmax.o)
 .text          0x00000000        0x0 C:/ProgramData/MATLAB/SupportPackages/R2025b/3P.instrset/gnuarm-armcortex.instrset/win/bin/../lib/gcc/arm-none-eabi/13.2.1/thumb/v7e-m+fp/hard\libm.a(libm_a-sf_fmin.o)
 .data          0x00000000        0x0 C:/ProgramData/MATLAB/SupportPackages/R2025b/3P.instrset/gnuarm-armcortex.instrset/win/bin/../lib/gcc/arm-none-eabi/13.2.1/thumb/v7e-m+fp/hard\libm.a(libm_a-sf_fmin.o)
 .bss           0x00000000        0x0 C:/ProgramData/MATLAB/SupportPackages/R2025b/3P.instrset/gnuarm-armcortex.instrset/win/bin/../lib/gcc/arm-none-eabi/13.2.1/thumb/v7e-m+fp/hard\libm.a(libm_a-sf_fmin.o)
 .text          0x00000000        0x0 C:/ProgramData/MATLAB/SupportPackages/R2025b/3P.instrset/gnuarm-armcortex.instrset/win/bin/../lib/gcc/arm-none-eabi/13.2.1/thumb/v7e-m+fp/hard\libm.a(libm_a-sf_fpclassify.o)
 .data          0x00000000        0x0 C:/ProgramData/MATLAB/SupportPackages/R2025b/3P.instrset/gnuarm-armcortex.instrset/win/bin/../lib/gcc/arm-none-eabi/13.2.1/thumb/v7e-m+fp/hard\libm.a(libm_a-sf_fpclassify.o)
 .bss           0x00000000        0x0 C:/ProgramData/MATLAB/SupportPackages/R2025b/3P.instrset/gnuarm-armcortex.instrset/win/bin/../lib/gcc/arm-none-eabi/13.2.1/thumb/v7e-m+fp/hard\libm.a(libm_a-sf_fpclassify.o)
 .text          0x00000000      0x254 C:/ProgramData/MATLAB/SupportPackages/R2025b/3P.instrset/gnuarm-armcortex.instrset/win/bin/../lib/gcc/arm-none-eabi/13.2.1/thumb/v7e-m+fp/hard\libgcc.a(_arm_muldf3.o)
 .data          0x00000000        0x0 C:/ProgramData/MATLAB/SupportPackages/R2025b/3P.instrset/gnuarm-armcortex.instrset/win/bin/../lib/gcc/arm-none-eabi/13.2.1/thumb/v7e-m+fp/hard\libgcc.a(_arm_muldf3.o)
 .bss           0x00000000        0x0 C:/ProgramData/MATLAB/SupportPackages/R2025b/3P.instrset/gnuarm-armcortex.instrset/win/bin/../lib/gcc/arm-none-eabi/13.2.1/thumb/v7e-m+fp/hard\libgcc.a(_arm_muldf3.o)
 .debug_line_str
                0x00000000       0xce C:/ProgramData/MATLAB/SupportPackages/R2025b/3P.instrset/gnuarm-armcortex.instrset/win/bin/../lib/gcc/arm-none-eabi/13.2.1/thumb/v7e-m+fp/hard\libgcc.a(_arm_muldf3.o)
 .debug_frame   0x00000000       0x30 C:/ProgramData/MATLAB/SupportPackages/R2025b/3P.instrset/gnuarm-armcortex.instrset/win/bin/../lib/gcc/arm-none-eabi/13.2.1/thumb/v7e-m+fp/hard\libgcc.a(_arm_muldf3.o)
 .ARM.attributes
                0x00000000       0x22 C:/ProgramData/MATLAB/SupportPackages/R2025b/3P.instrset/gnuarm-armcortex.instrset/win/bin/../lib/gcc/arm-none-eabi/13.2.1/thumb/v7e-m+fp/hard\libgcc.a(_arm_muldf3.o)
 .data          0x00000000        0x0 C:/ProgramData/MATLAB/SupportPackages/R2025b/3P.instrset/gnuarm-armcortex.instrset/win/bin/../lib/gcc/arm-none-eabi/13.2.1/thumb/v7e-m+fp/hard\libgcc.a(_arm_addsubdf3.o)
 .bss           0x00000000        0x0 C:/ProgramData/MATLAB/SupportPackages/R2025b/3P.instrset/gnuarm-armcortex.instrset/win/bin/../lib/gcc/arm-none-eabi/13.2.1/thumb/v7e-m+fp/hard\libgcc.a(_arm_addsubdf3.o)
 .data          0x00000000        0x0 C:/ProgramData/MATLAB/SupportPackages/R2025b/3P.instrset/gnuarm-armcortex.instrset/win/bin/../lib/gcc/arm-none-eabi/13.2.1/thumb/v7e-m+fp/hard\libgcc.a(_arm_muldivdf3.o)
 .bss           0x00000000        0x0 C:/ProgramData/MATLAB/SupportPackages/R2025b/3P.instrset/gnuarm-armcortex.instrset/win/bin/../lib/gcc/arm-none-eabi/13.2.1/thumb/v7e-m+fp/hard\libgcc.a(_arm_muldivdf3.o)
 .data          0x00000000        0x0 C:/ProgramData/MATLAB/SupportPackages/R2025b/3P.instrset/gnuarm-armcortex.instrset/win/bin/../lib/gcc/arm-none-eabi/13.2.1/thumb/v7e-m+fp/hard\libgcc.a(_arm_cmpdf2.o)
 .bss           0x00000000        0x0 C:/ProgramData/MATLAB/SupportPackages/R2025b/3P.instrset/gnuarm-armcortex.instrset/win/bin/../lib/gcc/arm-none-eabi/13.2.1/thumb/v7e-m+fp/hard\libgcc.a(_arm_cmpdf2.o)
 .text          0x00000000       0x2c C:/ProgramData/MATLAB/SupportPackages/R2025b/3P.instrset/gnuarm-armcortex.instrset/win/bin/../lib/gcc/arm-none-eabi/13.2.1/thumb/v7e-m+fp/hard\libgcc.a(_arm_unorddf2.o)
 .data          0x00000000        0x0 C:/ProgramData/MATLAB/SupportPackages/R2025b/3P.instrset/gnuarm-armcortex.instrset/win/bin/../lib/gcc/arm-none-eabi/13.2.1/thumb/v7e-m+fp/hard\libgcc.a(_arm_unorddf2.o)
 .bss           0x00000000        0x0 C:/ProgramData/MATLAB/SupportPackages/R2025b/3P.instrset/gnuarm-armcortex.instrset/win/bin/../lib/gcc/arm-none-eabi/13.2.1/thumb/v7e-m+fp/hard\libgcc.a(_arm_unorddf2.o)
 .debug_line_str
                0x00000000       0xce C:/ProgramData/MATLAB/SupportPackages/R2025b/3P.instrset/gnuarm-armcortex.instrset/win/bin/../lib/gcc/arm-none-eabi/13.2.1/thumb/v7e-m+fp/hard\libgcc.a(_arm_unorddf2.o)
 .debug_frame   0x00000000       0x20 C:/ProgramData/MATLAB/SupportPackages/R2025b/3P.instrset/gnuarm-armcortex.instrset/win/bin/../lib/gcc/arm-none-eabi/13.2.1/thumb/v7e-m+fp/hard\libgcc.a(_arm_unorddf2.o)
 .ARM.attributes
                0x00000000       0x22 C:/ProgramData/MATLAB/SupportPackages/R2025b/3P.instrset/gnuarm-armcortex.instrset/win/bin/../lib/gcc/arm-none-eabi/13.2.1/thumb/v7e-m+fp/hard\libgcc.a(_arm_unorddf2.o)
 .data          0x00000000        0x0 C:/ProgramData/MATLAB/SupportPackages/R2025b/3P.instrset/gnuarm-armcortex.instrset/win/bin/../lib/gcc/arm-none-eabi/13.2.1/thumb/v7e-m+fp/hard\libgcc.a(_arm_truncdfsf2.o)
 .bss           0x00000000        0x0 C:/ProgramData/MATLAB/SupportPackages/R2025b/3P.instrset/gnuarm-armcortex.instrset/win/bin/../lib/gcc/arm-none-eabi/13.2.1/thumb/v7e-m+fp/hard\libgcc.a(_arm_truncdfsf2.o)
 .data          0x00000000        0x0 C:/ProgramData/MATLAB/SupportPackages/R2025b/3P.instrset/gnuarm-armcortex.instrset/win/bin/../lib/gcc/arm-none-eabi/13.2.1/thumb/v7e-m+fp/hard\libgcc.a(_aeabi_uldivmod.o)
 .bss           0x00000000        0x0 C:/ProgramData/MATLAB/SupportPackages/R2025b/3P.instrset/gnuarm-armcortex.instrset/win/bin/../lib/gcc/arm-none-eabi/13.2.1/thumb/v7e-m+fp/hard\libgcc.a(_aeabi_uldivmod.o)
 .text          0x00000000        0x0 C:/ProgramData/MATLAB/SupportPackages/R2025b/3P.instrset/gnuarm-armcortex.instrset/win/bin/../lib/gcc/arm-none-eabi/13.2.1/thumb/v7e-m+fp/hard\libgcc.a(_udivmoddi4.o)
 .data          0x00000000        0x0 C:/ProgramData/MATLAB/SupportPackages/R2025b/3P.instrset/gnuarm-armcortex.instrset/win/bin/../lib/gcc/arm-none-eabi/13.2.1/thumb/v7e-m+fp/hard\libgcc.a(_udivmoddi4.o)
 .bss           0x00000000        0x0 C:/ProgramData/MATLAB/SupportPackages/R2025b/3P.instrset/gnuarm-armcortex.instrset/win/bin/../lib/gcc/arm-none-eabi/13.2.1/thumb/v7e-m+fp/hard\libgcc.a(_udivmoddi4.o)
 .ARM.extab.text.__udivmoddi4
                0x00000000        0x0 C:/ProgramData/MATLAB/SupportPackages/R2025b/3P.instrset/gnuarm-armcortex.instrset/win/bin/../lib/gcc/arm-none-eabi/13.2.1/thumb/v7e-m+fp/hard\libgcc.a(_udivmoddi4.o)
 .data          0x00000000        0x0 C:/ProgramData/MATLAB/SupportPackages/R2025b/3P.instrset/gnuarm-armcortex.instrset/win/bin/../lib/gcc/arm-none-eabi/13.2.1/thumb/v7e-m+fp/hard\libgcc.a(_dvmd_tls.o)
 .bss           0x00000000        0x0 C:/ProgramData/MATLAB/SupportPackages/R2025b/3P.instrset/gnuarm-armcortex.instrset/win/bin/../lib/gcc/arm-none-eabi/13.2.1/thumb/v7e-m+fp/hard\libgcc.a(_dvmd_tls.o)
 .text          0x00000000        0x0 C:/ProgramData/MATLAB/SupportPackages/R2025b/3P.instrset/gnuarm-armcortex.instrset/win/bin/../lib/gcc/arm-none-eabi/13.2.1/thumb/v7e-m+fp/hard\libg_nano.a(libc_a-exit.o)
 .data          0x00000000        0x0 C:/ProgramData/MATLAB/SupportPackages/R2025b/3P.instrset/gnuarm-armcortex.instrset/win/bin/../lib/gcc/arm-none-eabi/13.2.1/thumb/v7e-m+fp/hard\libg_nano.a(libc_a-exit.o)
 .bss           0x00000000        0x0 C:/ProgramData/MATLAB/SupportPackages/R2025b/3P.instrset/gnuarm-armcortex.instrset/win/bin/../lib/gcc/arm-none-eabi/13.2.1/thumb/v7e-m+fp/hard\libg_nano.a(libc_a-exit.o)
 .text.exit     0x00000000       0x24 C:/ProgramData/MATLAB/SupportPackages/R2025b/3P.instrset/gnuarm-armcortex.instrset/win/bin/../lib/gcc/arm-none-eabi/13.2.1/thumb/v7e-m+fp/hard\libg_nano.a(libc_a-exit.o)
 .debug_frame   0x00000000       0x28 C:/ProgramData/MATLAB/SupportPackages/R2025b/3P.instrset/gnuarm-armcortex.instrset/win/bin/../lib/gcc/arm-none-eabi/13.2.1/thumb/v7e-m+fp/hard\libg_nano.a(libc_a-exit.o)
 .ARM.attributes
                0x00000000       0x34 C:/ProgramData/MATLAB/SupportPackages/R2025b/3P.instrset/gnuarm-armcortex.instrset/win/bin/../lib/gcc/arm-none-eabi/13.2.1/thumb/v7e-m+fp/hard\libg_nano.a(libc_a-exit.o)
 .text          0x00000000        0x0 C:/ProgramData/MATLAB/SupportPackages/R2025b/3P.instrset/gnuarm-armcortex.instrset/win/bin/../lib/gcc/arm-none-eabi/13.2.1/thumb/v7e-m+fp/hard\libg_nano.a(libc_a-findfp.o)
 .data          0x00000000        0x0 C:/ProgramData/MATLAB/SupportPackages/R2025b/3P.instrset/gnuarm-armcortex.instrset/win/bin/../lib/gcc/arm-none-eabi/13.2.1/thumb/v7e-m+fp/hard\libg_nano.a(libc_a-findfp.o)
 .bss           0x00000000        0x0 C:/ProgramData/MATLAB/SupportPackages/R2025b/3P.instrset/gnuarm-armcortex.instrset/win/bin/../lib/gcc/arm-none-eabi/13.2.1/thumb/v7e-m+fp/hard\libg_nano.a(libc_a-findfp.o)
 .text.std      0x00000000       0x6c C:/ProgramData/MATLAB/SupportPackages/R2025b/3P.instrset/gnuarm-armcortex.instrset/win/bin/../lib/gcc/arm-none-eabi/13.2.1/thumb/v7e-m+fp/hard\libg_nano.a(libc_a-findfp.o)
 .text.stdio_exit_handler
                0x00000000       0x18 C:/ProgramData/MATLAB/SupportPackages/R2025b/3P.instrset/gnuarm-armcortex.instrset/win/bin/../lib/gcc/arm-none-eabi/13.2.1/thumb/v7e-m+fp/hard\libg_nano.a(libc_a-findfp.o)
 .text.cleanup_stdio
                0x00000000       0x40 C:/ProgramData/MATLAB/SupportPackages/R2025b/3P.instrset/gnuarm-armcortex.instrset/win/bin/../lib/gcc/arm-none-eabi/13.2.1/thumb/v7e-m+fp/hard\libg_nano.a(libc_a-findfp.o)
 .text.__fp_lock
                0x00000000       0x18 C:/ProgramData/MATLAB/SupportPackages/R2025b/3P.instrset/gnuarm-armcortex.instrset/win/bin/../lib/gcc/arm-none-eabi/13.2.1/thumb/v7e-m+fp/hard\libg_nano.a(libc_a-findfp.o)
 .text.__fp_unlock
                0x00000000       0x18 C:/ProgramData/MATLAB/SupportPackages/R2025b/3P.instrset/gnuarm-armcortex.instrset/win/bin/../lib/gcc/arm-none-eabi/13.2.1/thumb/v7e-m+fp/hard\libg_nano.a(libc_a-findfp.o)
 .text.global_stdio_init.part.0
                0x00000000       0x3c C:/ProgramData/MATLAB/SupportPackages/R2025b/3P.instrset/gnuarm-armcortex.instrset/win/bin/../lib/gcc/arm-none-eabi/13.2.1/thumb/v7e-m+fp/hard\libg_nano.a(libc_a-findfp.o)
 .text.__sfp_lock_acquire
                0x00000000        0xc C:/ProgramData/MATLAB/SupportPackages/R2025b/3P.instrset/gnuarm-armcortex.instrset/win/bin/../lib/gcc/arm-none-eabi/13.2.1/thumb/v7e-m+fp/hard\libg_nano.a(libc_a-findfp.o)
 .text.__sfp_lock_release
                0x00000000        0xc C:/ProgramData/MATLAB/SupportPackages/R2025b/3P.instrset/gnuarm-armcortex.instrset/win/bin/../lib/gcc/arm-none-eabi/13.2.1/thumb/v7e-m+fp/hard\libg_nano.a(libc_a-findfp.o)
 .text.__sfp    0x00000000       0xa4 C:/ProgramData/MATLAB/SupportPackages/R2025b/3P.instrset/gnuarm-armcortex.instrset/win/bin/../lib/gcc/arm-none-eabi/13.2.1/thumb/v7e-m+fp/hard\libg_nano.a(libc_a-findfp.o)
 .text.__sinit  0x00000000       0x30 C:/ProgramData/MATLAB/SupportPackages/R2025b/3P.instrset/gnuarm-armcortex.instrset/win/bin/../lib/gcc/arm-none-eabi/13.2.1/thumb/v7e-m+fp/hard\libg_nano.a(libc_a-findfp.o)
 .text.__fp_lock_all
                0x00000000       0x1c C:/ProgramData/MATLAB/SupportPackages/R2025b/3P.instrset/gnuarm-armcortex.instrset/win/bin/../lib/gcc/arm-none-eabi/13.2.1/thumb/v7e-m+fp/hard\libg_nano.a(libc_a-findfp.o)
 .text.__fp_unlock_all
                0x00000000       0x1c C:/ProgramData/MATLAB/SupportPackages/R2025b/3P.instrset/gnuarm-armcortex.instrset/win/bin/../lib/gcc/arm-none-eabi/13.2.1/thumb/v7e-m+fp/hard\libg_nano.a(libc_a-findfp.o)
 .data.__sglue  0x00000000        0xc C:/ProgramData/MATLAB/SupportPackages/R2025b/3P.instrset/gnuarm-armcortex.instrset/win/bin/../lib/gcc/arm-none-eabi/13.2.1/thumb/v7e-m+fp/hard\libg_nano.a(libc_a-findfp.o)
 .bss.__sf      0x00000000      0x138 C:/ProgramData/MATLAB/SupportPackages/R2025b/3P.instrset/gnuarm-armcortex.instrset/win/bin/../lib/gcc/arm-none-eabi/13.2.1/thumb/v7e-m+fp/hard\libg_nano.a(libc_a-findfp.o)
 .bss.__stdio_exit_handler
                0x00000000        0x4 C:/ProgramData/MATLAB/SupportPackages/R2025b/3P.instrset/gnuarm-armcortex.instrset/win/bin/../lib/gcc/arm-none-eabi/13.2.1/thumb/v7e-m+fp/hard\libg_nano.a(libc_a-findfp.o)
 .debug_frame   0x00000000      0x144 C:/ProgramData/MATLAB/SupportPackages/R2025b/3P.instrset/gnuarm-armcortex.instrset/win/bin/../lib/gcc/arm-none-eabi/13.2.1/thumb/v7e-m+fp/hard\libg_nano.a(libc_a-findfp.o)
 .ARM.attributes
                0x00000000       0x34 C:/ProgramData/MATLAB/SupportPackages/R2025b/3P.instrset/gnuarm-armcortex.instrset/win/bin/../lib/gcc/arm-none-eabi/13.2.1/thumb/v7e-m+fp/hard\libg_nano.a(libc_a-findfp.o)
 .text          0x00000000        0x0 C:/ProgramData/MATLAB/SupportPackages/R2025b/3P.instrset/gnuarm-armcortex.instrset/win/bin/../lib/gcc/arm-none-eabi/13.2.1/thumb/v7e-m+fp/hard\libg_nano.a(libc_a-fwalk.o)
 .data          0x00000000        0x0 C:/ProgramData/MATLAB/SupportPackages/R2025b/3P.instrset/gnuarm-armcortex.instrset/win/bin/../lib/gcc/arm-none-eabi/13.2.1/thumb/v7e-m+fp/hard\libg_nano.a(libc_a-fwalk.o)
 .bss           0x00000000        0x0 C:/ProgramData/MATLAB/SupportPackages/R2025b/3P.instrset/gnuarm-armcortex.instrset/win/bin/../lib/gcc/arm-none-eabi/13.2.1/thumb/v7e-m+fp/hard\libg_nano.a(libc_a-fwalk.o)
 .text._fwalk_sglue
                0x00000000       0x3c C:/ProgramData/MATLAB/SupportPackages/R2025b/3P.instrset/gnuarm-armcortex.instrset/win/bin/../lib/gcc/arm-none-eabi/13.2.1/thumb/v7e-m+fp/hard\libg_nano.a(libc_a-fwalk.o)
 .debug_frame   0x00000000       0x34 C:/ProgramData/MATLAB/SupportPackages/R2025b/3P.instrset/gnuarm-armcortex.instrset/win/bin/../lib/gcc/arm-none-eabi/13.2.1/thumb/v7e-m+fp/hard\libg_nano.a(libc_a-fwalk.o)
 .ARM.attributes
                0x00000000       0x34 C:/ProgramData/MATLAB/SupportPackages/R2025b/3P.instrset/gnuarm-armcortex.instrset/win/bin/../lib/gcc/arm-none-eabi/13.2.1/thumb/v7e-m+fp/hard\libg_nano.a(libc_a-fwalk.o)
 .text          0x00000000        0x0 C:/ProgramData/MATLAB/SupportPackages/R2025b/3P.instrset/gnuarm-armcortex.instrset/win/bin/../lib/gcc/arm-none-eabi/13.2.1/thumb/v7e-m+fp/hard\libg_nano.a(libc_a-stdio.o)
 .data          0x00000000        0x0 C:/ProgramData/MATLAB/SupportPackages/R2025b/3P.instrset/gnuarm-armcortex.instrset/win/bin/../lib/gcc/arm-none-eabi/13.2.1/thumb/v7e-m+fp/hard\libg_nano.a(libc_a-stdio.o)
 .bss           0x00000000        0x0 C:/ProgramData/MATLAB/SupportPackages/R2025b/3P.instrset/gnuarm-armcortex.instrset/win/bin/../lib/gcc/arm-none-eabi/13.2.1/thumb/v7e-m+fp/hard\libg_nano.a(libc_a-stdio.o)
 .text.__sread  0x00000000       0x22 C:/ProgramData/MATLAB/SupportPackages/R2025b/3P.instrset/gnuarm-armcortex.instrset/win/bin/../lib/gcc/arm-none-eabi/13.2.1/thumb/v7e-m+fp/hard\libg_nano.a(libc_a-stdio.o)
 .text.__seofread
                0x00000000        0x4 C:/ProgramData/MATLAB/SupportPackages/R2025b/3P.instrset/gnuarm-armcortex.instrset/win/bin/../lib/gcc/arm-none-eabi/13.2.1/thumb/v7e-m+fp/hard\libg_nano.a(libc_a-stdio.o)
 .text.__swrite
                0x00000000       0x38 C:/ProgramData/MATLAB/SupportPackages/R2025b/3P.instrset/gnuarm-armcortex.instrset/win/bin/../lib/gcc/arm-none-eabi/13.2.1/thumb/v7e-m+fp/hard\libg_nano.a(libc_a-stdio.o)
 .text.__sseek  0x00000000       0x24 C:/ProgramData/MATLAB/SupportPackages/R2025b/3P.instrset/gnuarm-armcortex.instrset/win/bin/../lib/gcc/arm-none-eabi/13.2.1/thumb/v7e-m+fp/hard\libg_nano.a(libc_a-stdio.o)
 .text.__sclose
                0x00000000        0x8 C:/ProgramData/MATLAB/SupportPackages/R2025b/3P.instrset/gnuarm-armcortex.instrset/win/bin/../lib/gcc/arm-none-eabi/13.2.1/thumb/v7e-m+fp/hard\libg_nano.a(libc_a-stdio.o)
 .debug_frame   0x00000000       0x88 C:/ProgramData/MATLAB/SupportPackages/R2025b/3P.instrset/gnuarm-armcortex.instrset/win/bin/../lib/gcc/arm-none-eabi/13.2.1/thumb/v7e-m+fp/hard\libg_nano.a(libc_a-stdio.o)
 .ARM.attributes
                0x00000000       0x34 C:/ProgramData/MATLAB/SupportPackages/R2025b/3P.instrset/gnuarm-armcortex.instrset/win/bin/../lib/gcc/arm-none-eabi/13.2.1/thumb/v7e-m+fp/hard\libg_nano.a(libc_a-stdio.o)
 .text          0x00000000        0x0 C:/ProgramData/MATLAB/SupportPackages/R2025b/3P.instrset/gnuarm-armcortex.instrset/win/bin/../lib/gcc/arm-none-eabi/13.2.1/thumb/v7e-m+fp/hard\libg_nano.a(libc_a-memset.o)
 .data          0x00000000        0x0 C:/ProgramData/MATLAB/SupportPackages/R2025b/3P.instrset/gnuarm-armcortex.instrset/win/bin/../lib/gcc/arm-none-eabi/13.2.1/thumb/v7e-m+fp/hard\libg_nano.a(libc_a-memset.o)
 .bss           0x00000000        0x0 C:/ProgramData/MATLAB/SupportPackages/R2025b/3P.instrset/gnuarm-armcortex.instrset/win/bin/../lib/gcc/arm-none-eabi/13.2.1/thumb/v7e-m+fp/hard\libg_nano.a(libc_a-memset.o)
 .text          0x00000000        0x0 C:/ProgramData/MATLAB/SupportPackages/R2025b/3P.instrset/gnuarm-armcortex.instrset/win/bin/../lib/gcc/arm-none-eabi/13.2.1/thumb/v7e-m+fp/hard\libg_nano.a(libc_a-closer.o)
 .data          0x00000000        0x0 C:/ProgramData/MATLAB/SupportPackages/R2025b/3P.instrset/gnuarm-armcortex.instrset/win/bin/../lib/gcc/arm-none-eabi/13.2.1/thumb/v7e-m+fp/hard\libg_nano.a(libc_a-closer.o)
 .bss           0x00000000        0x0 C:/ProgramData/MATLAB/SupportPackages/R2025b/3P.instrset/gnuarm-armcortex.instrset/win/bin/../lib/gcc/arm-none-eabi/13.2.1/thumb/v7e-m+fp/hard\libg_nano.a(libc_a-closer.o)
 .text._close_r
                0x00000000       0x20 C:/ProgramData/MATLAB/SupportPackages/R2025b/3P.instrset/gnuarm-armcortex.instrset/win/bin/../lib/gcc/arm-none-eabi/13.2.1/thumb/v7e-m+fp/hard\libg_nano.a(libc_a-closer.o)
 .debug_frame   0x00000000       0x2c C:/ProgramData/MATLAB/SupportPackages/R2025b/3P.instrset/gnuarm-armcortex.instrset/win/bin/../lib/gcc/arm-none-eabi/13.2.1/thumb/v7e-m+fp/hard\libg_nano.a(libc_a-closer.o)
 .ARM.attributes
                0x00000000       0x34 C:/ProgramData/MATLAB/SupportPackages/R2025b/3P.instrset/gnuarm-armcortex.instrset/win/bin/../lib/gcc/arm-none-eabi/13.2.1/thumb/v7e-m+fp/hard\libg_nano.a(libc_a-closer.o)
 .text          0x00000000        0x0 C:/ProgramData/MATLAB/SupportPackages/R2025b/3P.instrset/gnuarm-armcortex.instrset/win/bin/../lib/gcc/arm-none-eabi/13.2.1/thumb/v7e-m+fp/hard\libg_nano.a(libc_a-reent.o)
 .data          0x00000000        0x0 C:/ProgramData/MATLAB/SupportPackages/R2025b/3P.instrset/gnuarm-armcortex.instrset/win/bin/../lib/gcc/arm-none-eabi/13.2.1/thumb/v7e-m+fp/hard\libg_nano.a(libc_a-reent.o)
 .bss           0x00000000        0x0 C:/ProgramData/MATLAB/SupportPackages/R2025b/3P.instrset/gnuarm-armcortex.instrset/win/bin/../lib/gcc/arm-none-eabi/13.2.1/thumb/v7e-m+fp/hard\libg_nano.a(libc_a-reent.o)
 .text._reclaim_reent
                0x00000000       0xac C:/ProgramData/MATLAB/SupportPackages/R2025b/3P.instrset/gnuarm-armcortex.instrset/win/bin/../lib/gcc/arm-none-eabi/13.2.1/thumb/v7e-m+fp/hard\libg_nano.a(libc_a-reent.o)
 .bss.errno     0x00000000        0x4 C:/ProgramData/MATLAB/SupportPackages/R2025b/3P.instrset/gnuarm-armcortex.instrset/win/bin/../lib/gcc/arm-none-eabi/13.2.1/thumb/v7e-m+fp/hard\libg_nano.a(libc_a-reent.o)
 .debug_frame   0x00000000       0x38 C:/ProgramData/MATLAB/SupportPackages/R2025b/3P.instrset/gnuarm-armcortex.instrset/win/bin/../lib/gcc/arm-none-eabi/13.2.1/thumb/v7e-m+fp/hard\libg_nano.a(libc_a-reent.o)
 .ARM.attributes
                0x00000000       0x34 C:/ProgramData/MATLAB/SupportPackages/R2025b/3P.instrset/gnuarm-armcortex.instrset/win/bin/../lib/gcc/arm-none-eabi/13.2.1/thumb/v7e-m+fp/hard\libg_nano.a(libc_a-reent.o)
 .text          0x00000000        0x0 C:/ProgramData/MATLAB/SupportPackages/R2025b/3P.instrset/gnuarm-armcortex.instrset/win/bin/../lib/gcc/arm-none-eabi/13.2.1/thumb/v7e-m+fp/hard\libg_nano.a(libc_a-impure.o)
 .data          0x00000000        0x0 C:/ProgramData/MATLAB/SupportPackages/R2025b/3P.instrset/gnuarm-armcortex.instrset/win/bin/../lib/gcc/arm-none-eabi/13.2.1/thumb/v7e-m+fp/hard\libg_nano.a(libc_a-impure.o)
 .bss           0x00000000        0x0 C:/ProgramData/MATLAB/SupportPackages/R2025b/3P.instrset/gnuarm-armcortex.instrset/win/bin/../lib/gcc/arm-none-eabi/13.2.1/thumb/v7e-m+fp/hard\libg_nano.a(libc_a-impure.o)
 .data._impure_ptr
                0x00000000        0x4 C:/ProgramData/MATLAB/SupportPackages/R2025b/3P.instrset/gnuarm-armcortex.instrset/win/bin/../lib/gcc/arm-none-eabi/13.2.1/thumb/v7e-m+fp/hard\libg_nano.a(libc_a-impure.o)
 .data._impure_data
                0x00000000       0x4c C:/ProgramData/MATLAB/SupportPackages/R2025b/3P.instrset/gnuarm-armcortex.instrset/win/bin/../lib/gcc/arm-none-eabi/13.2.1/thumb/v7e-m+fp/hard\libg_nano.a(libc_a-impure.o)
 .ARM.attributes
                0x00000000       0x34 C:/ProgramData/MATLAB/SupportPackages/R2025b/3P.instrset/gnuarm-armcortex.instrset/win/bin/../lib/gcc/arm-none-eabi/13.2.1/thumb/v7e-m+fp/hard\libg_nano.a(libc_a-impure.o)
 .text          0x00000000        0x0 C:/ProgramData/MATLAB/SupportPackages/R2025b/3P.instrset/gnuarm-armcortex.instrset/win/bin/../lib/gcc/arm-none-eabi/13.2.1/thumb/v7e-m+fp/hard\libg_nano.a(libc_a-lseekr.o)
 .data          0x00000000        0x0 C:/ProgramData/MATLAB/SupportPackages/R2025b/3P.instrset/gnuarm-armcortex.instrset/win/bin/../lib/gcc/arm-none-eabi/13.2.1/thumb/v7e-m+fp/hard\libg_nano.a(libc_a-lseekr.o)
 .bss           0x00000000        0x0 C:/ProgramData/MATLAB/SupportPackages/R2025b/3P.instrset/gnuarm-armcortex.instrset/win/bin/../lib/gcc/arm-none-eabi/13.2.1/thumb/v7e-m+fp/hard\libg_nano.a(libc_a-lseekr.o)
 .text._lseek_r
                0x00000000       0x24 C:/ProgramData/MATLAB/SupportPackages/R2025b/3P.instrset/gnuarm-armcortex.instrset/win/bin/../lib/gcc/arm-none-eabi/13.2.1/thumb/v7e-m+fp/hard\libg_nano.a(libc_a-lseekr.o)
 .debug_frame   0x00000000       0x2c C:/ProgramData/MATLAB/SupportPackages/R2025b/3P.instrset/gnuarm-armcortex.instrset/win/bin/../lib/gcc/arm-none-eabi/13.2.1/thumb/v7e-m+fp/hard\libg_nano.a(libc_a-lseekr.o)
 .ARM.attributes
                0x00000000       0x34 C:/ProgramData/MATLAB/SupportPackages/R2025b/3P.instrset/gnuarm-armcortex.instrset/win/bin/../lib/gcc/arm-none-eabi/13.2.1/thumb/v7e-m+fp/hard\libg_nano.a(libc_a-lseekr.o)
 .text          0x00000000        0x0 C:/ProgramData/MATLAB/SupportPackages/R2025b/3P.instrset/gnuarm-armcortex.instrset/win/bin/../lib/gcc/arm-none-eabi/13.2.1/thumb/v7e-m+fp/hard\libg_nano.a(libc_a-readr.o)
 .data          0x00000000        0x0 C:/ProgramData/MATLAB/SupportPackages/R2025b/3P.instrset/gnuarm-armcortex.instrset/win/bin/../lib/gcc/arm-none-eabi/13.2.1/thumb/v7e-m+fp/hard\libg_nano.a(libc_a-readr.o)
 .bss           0x00000000        0x0 C:/ProgramData/MATLAB/SupportPackages/R2025b/3P.instrset/gnuarm-armcortex.instrset/win/bin/../lib/gcc/arm-none-eabi/13.2.1/thumb/v7e-m+fp/hard\libg_nano.a(libc_a-readr.o)
 .text._read_r  0x00000000       0x24 C:/ProgramData/MATLAB/SupportPackages/R2025b/3P.instrset/gnuarm-armcortex.instrset/win/bin/../lib/gcc/arm-none-eabi/13.2.1/thumb/v7e-m+fp/hard\libg_nano.a(libc_a-readr.o)
 .debug_frame   0x00000000       0x2c C:/ProgramData/MATLAB/SupportPackages/R2025b/3P.instrset/gnuarm-armcortex.instrset/win/bin/../lib/gcc/arm-none-eabi/13.2.1/thumb/v7e-m+fp/hard\libg_nano.a(libc_a-readr.o)
 .ARM.attributes
                0x00000000       0x34 C:/ProgramData/MATLAB/SupportPackages/R2025b/3P.instrset/gnuarm-armcortex.instrset/win/bin/../lib/gcc/arm-none-eabi/13.2.1/thumb/v7e-m+fp/hard\libg_nano.a(libc_a-readr.o)
 .text          0x00000000        0x0 C:/ProgramData/MATLAB/SupportPackages/R2025b/3P.instrset/gnuarm-armcortex.instrset/win/bin/../lib/gcc/arm-none-eabi/13.2.1/thumb/v7e-m+fp/hard\libg_nano.a(libc_a-writer.o)
 .data          0x00000000        0x0 C:/ProgramData/MATLAB/SupportPackages/R2025b/3P.instrset/gnuarm-armcortex.instrset/win/bin/../lib/gcc/arm-none-eabi/13.2.1/thumb/v7e-m+fp/hard\libg_nano.a(libc_a-writer.o)
 .bss           0x00000000        0x0 C:/ProgramData/MATLAB/SupportPackages/R2025b/3P.instrset/gnuarm-armcortex.instrset/win/bin/../lib/gcc/arm-none-eabi/13.2.1/thumb/v7e-m+fp/hard\libg_nano.a(libc_a-writer.o)
 .text._write_r
                0x00000000       0x24 C:/ProgramData/MATLAB/SupportPackages/R2025b/3P.instrset/gnuarm-armcortex.instrset/win/bin/../lib/gcc/arm-none-eabi/13.2.1/thumb/v7e-m+fp/hard\libg_nano.a(libc_a-writer.o)
 .debug_frame   0x00000000       0x2c C:/ProgramData/MATLAB/SupportPackages/R2025b/3P.instrset/gnuarm-armcortex.instrset/win/bin/../lib/gcc/arm-none-eabi/13.2.1/thumb/v7e-m+fp/hard\libg_nano.a(libc_a-writer.o)
 .ARM.attributes
                0x00000000       0x34 C:/ProgramData/MATLAB/SupportPackages/R2025b/3P.instrset/gnuarm-armcortex.instrset/win/bin/../lib/gcc/arm-none-eabi/13.2.1/thumb/v7e-m+fp/hard\libg_nano.a(libc_a-writer.o)
 .text          0x00000000        0x0 C:/ProgramData/MATLAB/SupportPackages/R2025b/3P.instrset/gnuarm-armcortex.instrset/win/bin/../lib/gcc/arm-none-eabi/13.2.1/thumb/v7e-m+fp/hard\libg_nano.a(libc_a-errno.o)
 .data          0x00000000        0x0 C:/ProgramData/MATLAB/SupportPackages/R2025b/3P.instrset/gnuarm-armcortex.instrset/win/bin/../lib/gcc/arm-none-eabi/13.2.1/thumb/v7e-m+fp/hard\libg_nano.a(libc_a-errno.o)
 .bss           0x00000000        0x0 C:/ProgramData/MATLAB/SupportPackages/R2025b/3P.instrset/gnuarm-armcortex.instrset/win/bin/../lib/gcc/arm-none-eabi/13.2.1/thumb/v7e-m+fp/hard\libg_nano.a(libc_a-errno.o)
 .text.__errno  0x00000000        0xc C:/ProgramData/MATLAB/SupportPackages/R2025b/3P.instrset/gnuarm-armcortex.instrset/win/bin/../lib/gcc/arm-none-eabi/13.2.1/thumb/v7e-m+fp/hard\libg_nano.a(libc_a-errno.o)
 .debug_frame   0x00000000       0x20 C:/ProgramData/MATLAB/SupportPackages/R2025b/3P.instrset/gnuarm-armcortex.instrset/win/bin/../lib/gcc/arm-none-eabi/13.2.1/thumb/v7e-m+fp/hard\libg_nano.a(libc_a-errno.o)
 .ARM.attributes
                0x00000000       0x34 C:/ProgramData/MATLAB/SupportPackages/R2025b/3P.instrset/gnuarm-armcortex.instrset/win/bin/../lib/gcc/arm-none-eabi/13.2.1/thumb/v7e-m+fp/hard\libg_nano.a(libc_a-errno.o)
 .text          0x00000000        0x0 C:/ProgramData/MATLAB/SupportPackages/R2025b/3P.instrset/gnuarm-armcortex.instrset/win/bin/../lib/gcc/arm-none-eabi/13.2.1/thumb/v7e-m+fp/hard\libg_nano.a(libc_a-init.o)
 .data          0x00000000        0x0 C:/ProgramData/MATLAB/SupportPackages/R2025b/3P.instrset/gnuarm-armcortex.instrset/win/bin/../lib/gcc/arm-none-eabi/13.2.1/thumb/v7e-m+fp/hard\libg_nano.a(libc_a-init.o)
 .bss           0x00000000        0x0 C:/ProgramData/MATLAB/SupportPackages/R2025b/3P.instrset/gnuarm-armcortex.instrset/win/bin/../lib/gcc/arm-none-eabi/13.2.1/thumb/v7e-m+fp/hard\libg_nano.a(libc_a-init.o)
 .text          0x00000000        0x0 C:/ProgramData/MATLAB/SupportPackages/R2025b/3P.instrset/gnuarm-armcortex.instrset/win/bin/../lib/gcc/arm-none-eabi/13.2.1/thumb/v7e-m+fp/hard\libg_nano.a(libc_a-lock.o)
 .data          0x00000000        0x0 C:/ProgramData/MATLAB/SupportPackages/R2025b/3P.instrset/gnuarm-armcortex.instrset/win/bin/../lib/gcc/arm-none-eabi/13.2.1/thumb/v7e-m+fp/hard\libg_nano.a(libc_a-lock.o)
 .bss           0x00000000        0x0 C:/ProgramData/MATLAB/SupportPackages/R2025b/3P.instrset/gnuarm-armcortex.instrset/win/bin/../lib/gcc/arm-none-eabi/13.2.1/thumb/v7e-m+fp/hard\libg_nano.a(libc_a-lock.o)
 .text.__retarget_lock_init
                0x00000000        0x2 C:/ProgramData/MATLAB/SupportPackages/R2025b/3P.instrset/gnuarm-armcortex.instrset/win/bin/../lib/gcc/arm-none-eabi/13.2.1/thumb/v7e-m+fp/hard\libg_nano.a(libc_a-lock.o)
 .text.__retarget_lock_init_recursive
                0x00000000        0x2 C:/ProgramData/MATLAB/SupportPackages/R2025b/3P.instrset/gnuarm-armcortex.instrset/win/bin/../lib/gcc/arm-none-eabi/13.2.1/thumb/v7e-m+fp/hard\libg_nano.a(libc_a-lock.o)
 .text.__retarget_lock_close
                0x00000000        0x2 C:/ProgramData/MATLAB/SupportPackages/R2025b/3P.instrset/gnuarm-armcortex.instrset/win/bin/../lib/gcc/arm-none-eabi/13.2.1/thumb/v7e-m+fp/hard\libg_nano.a(libc_a-lock.o)
 .text.__retarget_lock_close_recursive
                0x00000000        0x2 C:/ProgramData/MATLAB/SupportPackages/R2025b/3P.instrset/gnuarm-armcortex.instrset/win/bin/../lib/gcc/arm-none-eabi/13.2.1/thumb/v7e-m+fp/hard\libg_nano.a(libc_a-lock.o)
 .text.__retarget_lock_acquire
                0x00000000        0x2 C:/ProgramData/MATLAB/SupportPackages/R2025b/3P.instrset/gnuarm-armcortex.instrset/win/bin/../lib/gcc/arm-none-eabi/13.2.1/thumb/v7e-m+fp/hard\libg_nano.a(libc_a-lock.o)
 .text.__retarget_lock_acquire_recursive
                0x00000000        0x2 C:/ProgramData/MATLAB/SupportPackages/R2025b/3P.instrset/gnuarm-armcortex.instrset/win/bin/../lib/gcc/arm-none-eabi/13.2.1/thumb/v7e-m+fp/hard\libg_nano.a(libc_a-lock.o)
 .text.__retarget_lock_try_acquire
                0x00000000        0x4 C:/ProgramData/MATLAB/SupportPackages/R2025b/3P.instrset/gnuarm-armcortex.instrset/win/bin/../lib/gcc/arm-none-eabi/13.2.1/thumb/v7e-m+fp/hard\libg_nano.a(libc_a-lock.o)
 .text.__retarget_lock_try_acquire_recursive
                0x00000000        0x4 C:/ProgramData/MATLAB/SupportPackages/R2025b/3P.instrset/gnuarm-armcortex.instrset/win/bin/../lib/gcc/arm-none-eabi/13.2.1/thumb/v7e-m+fp/hard\libg_nano.a(libc_a-lock.o)
 .text.__retarget_lock_release
                0x00000000        0x2 C:/ProgramData/MATLAB/SupportPackages/R2025b/3P.instrset/gnuarm-armcortex.instrset/win/bin/../lib/gcc/arm-none-eabi/13.2.1/thumb/v7e-m+fp/hard\libg_nano.a(libc_a-lock.o)
 .text.__retarget_lock_release_recursive
                0x00000000        0x2 C:/ProgramData/MATLAB/SupportPackages/R2025b/3P.instrset/gnuarm-armcortex.instrset/win/bin/../lib/gcc/arm-none-eabi/13.2.1/thumb/v7e-m+fp/hard\libg_nano.a(libc_a-lock.o)
 .bss.__lock___arc4random_mutex
                0x00000000        0x1 C:/ProgramData/MATLAB/SupportPackages/R2025b/3P.instrset/gnuarm-armcortex.instrset/win/bin/../lib/gcc/arm-none-eabi/13.2.1/thumb/v7e-m+fp/hard\libg_nano.a(libc_a-lock.o)
 .bss.__lock___dd_hash_mutex
                0x00000000        0x1 C:/ProgramData/MATLAB/SupportPackages/R2025b/3P.instrset/gnuarm-armcortex.instrset/win/bin/../lib/gcc/arm-none-eabi/13.2.1/thumb/v7e-m+fp/hard\libg_nano.a(libc_a-lock.o)
 .bss.__lock___tz_mutex
                0x00000000        0x1 C:/ProgramData/MATLAB/SupportPackages/R2025b/3P.instrset/gnuarm-armcortex.instrset/win/bin/../lib/gcc/arm-none-eabi/13.2.1/thumb/v7e-m+fp/hard\libg_nano.a(libc_a-lock.o)
 .bss.__lock___env_recursive_mutex
                0x00000000        0x1 C:/ProgramData/MATLAB/SupportPackages/R2025b/3P.instrset/gnuarm-armcortex.instrset/win/bin/../lib/gcc/arm-none-eabi/13.2.1/thumb/v7e-m+fp/hard\libg_nano.a(libc_a-lock.o)
 .bss.__lock___malloc_recursive_mutex
                0x00000000        0x1 C:/ProgramData/MATLAB/SupportPackages/R2025b/3P.instrset/gnuarm-armcortex.instrset/win/bin/../lib/gcc/arm-none-eabi/13.2.1/thumb/v7e-m+fp/hard\libg_nano.a(libc_a-lock.o)
 .bss.__lock___at_quick_exit_mutex
                0x00000000        0x1 C:/ProgramData/MATLAB/SupportPackages/R2025b/3P.instrset/gnuarm-armcortex.instrset/win/bin/../lib/gcc/arm-none-eabi/13.2.1/thumb/v7e-m+fp/hard\libg_nano.a(libc_a-lock.o)
 .bss.__lock___atexit_recursive_mutex
                0x00000000        0x1 C:/ProgramData/MATLAB/SupportPackages/R2025b/3P.instrset/gnuarm-armcortex.instrset/win/bin/../lib/gcc/arm-none-eabi/13.2.1/thumb/v7e-m+fp/hard\libg_nano.a(libc_a-lock.o)
 .bss.__lock___sfp_recursive_mutex
                0x00000000        0x1 C:/ProgramData/MATLAB/SupportPackages/R2025b/3P.instrset/gnuarm-armcortex.instrset/win/bin/../lib/gcc/arm-none-eabi/13.2.1/thumb/v7e-m+fp/hard\libg_nano.a(libc_a-lock.o)
 .debug_frame   0x00000000       0xb0 C:/ProgramData/MATLAB/SupportPackages/R2025b/3P.instrset/gnuarm-armcortex.instrset/win/bin/../lib/gcc/arm-none-eabi/13.2.1/thumb/v7e-m+fp/hard\libg_nano.a(libc_a-lock.o)
 .ARM.attributes
                0x00000000       0x34 C:/ProgramData/MATLAB/SupportPackages/R2025b/3P.instrset/gnuarm-armcortex.instrset/win/bin/../lib/gcc/arm-none-eabi/13.2.1/thumb/v7e-m+fp/hard\libg_nano.a(libc_a-lock.o)
 .text          0x00000000        0x0 C:/ProgramData/MATLAB/SupportPackages/R2025b/3P.instrset/gnuarm-armcortex.instrset/win/bin/../lib/gcc/arm-none-eabi/13.2.1/thumb/v7e-m+fp/hard\libg_nano.a(libc_a-memcpy-stub.o)
 .data          0x00000000        0x0 C:/ProgramData/MATLAB/SupportPackages/R2025b/3P.instrset/gnuarm-armcortex.instrset/win/bin/../lib/gcc/arm-none-eabi/13.2.1/thumb/v7e-m+fp/hard\libg_nano.a(libc_a-memcpy-stub.o)
 .bss           0x00000000        0x0 C:/ProgramData/MATLAB/SupportPackages/R2025b/3P.instrset/gnuarm-armcortex.instrset/win/bin/../lib/gcc/arm-none-eabi/13.2.1/thumb/v7e-m+fp/hard\libg_nano.a(libc_a-memcpy-stub.o)
 .text          0x00000000       0x10 C:/ProgramData/MATLAB/SupportPackages/R2025b/3P.instrset/gnuarm-armcortex.instrset/win/bin/../lib/gcc/arm-none-eabi/13.2.1/thumb/v7e-m+fp/hard\libg_nano.a(libc_a-strlen.o)
 .data          0x00000000        0x0 C:/ProgramData/MATLAB/SupportPackages/R2025b/3P.instrset/gnuarm-armcortex.instrset/win/bin/../lib/gcc/arm-none-eabi/13.2.1/thumb/v7e-m+fp/hard\libg_nano.a(libc_a-strlen.o)
 .bss           0x00000000        0x0 C:/ProgramData/MATLAB/SupportPackages/R2025b/3P.instrset/gnuarm-armcortex.instrset/win/bin/../lib/gcc/arm-none-eabi/13.2.1/thumb/v7e-m+fp/hard\libg_nano.a(libc_a-strlen.o)
 .ARM.extab     0x00000000        0x0 C:/ProgramData/MATLAB/SupportPackages/R2025b/3P.instrset/gnuarm-armcortex.instrset/win/bin/../lib/gcc/arm-none-eabi/13.2.1/thumb/v7e-m+fp/hard\libg_nano.a(libc_a-strlen.o)
 .ARM.exidx     0x00000000        0x8 C:/ProgramData/MATLAB/SupportPackages/R2025b/3P.instrset/gnuarm-armcortex.instrset/win/bin/../lib/gcc/arm-none-eabi/13.2.1/thumb/v7e-m+fp/hard\libg_nano.a(libc_a-strlen.o)
 .debug_line_str
                0x00000000       0xeb C:/ProgramData/MATLAB/SupportPackages/R2025b/3P.instrset/gnuarm-armcortex.instrset/win/bin/../lib/gcc/arm-none-eabi/13.2.1/thumb/v7e-m+fp/hard\libg_nano.a(libc_a-strlen.o)
 .eh_frame      0x00000000       0x28 C:/ProgramData/MATLAB/SupportPackages/R2025b/3P.instrset/gnuarm-armcortex.instrset/win/bin/../lib/gcc/arm-none-eabi/13.2.1/thumb/v7e-m+fp/hard\libg_nano.a(libc_a-strlen.o)
 .ARM.attributes
                0x00000000       0x17 C:/ProgramData/MATLAB/SupportPackages/R2025b/3P.instrset/gnuarm-armcortex.instrset/win/bin/../lib/gcc/arm-none-eabi/13.2.1/thumb/v7e-m+fp/hard\libg_nano.a(libc_a-strlen.o)
 .text          0x00000000        0x0 C:/ProgramData/MATLAB/SupportPackages/R2025b/3P.instrset/gnuarm-armcortex.instrset/win/bin/../lib/gcc/arm-none-eabi/13.2.1/thumb/v7e-m+fp/hard\libg_nano.a(libc_a-freer.o)
 .data          0x00000000        0x0 C:/ProgramData/MATLAB/SupportPackages/R2025b/3P.instrset/gnuarm-armcortex.instrset/win/bin/../lib/gcc/arm-none-eabi/13.2.1/thumb/v7e-m+fp/hard\libg_nano.a(libc_a-freer.o)
 .bss           0x00000000        0x0 C:/ProgramData/MATLAB/SupportPackages/R2025b/3P.instrset/gnuarm-armcortex.instrset/win/bin/../lib/gcc/arm-none-eabi/13.2.1/thumb/v7e-m+fp/hard\libg_nano.a(libc_a-freer.o)
 .text._free_r  0x00000000       0x94 C:/ProgramData/MATLAB/SupportPackages/R2025b/3P.instrset/gnuarm-armcortex.instrset/win/bin/../lib/gcc/arm-none-eabi/13.2.1/thumb/v7e-m+fp/hard\libg_nano.a(libc_a-freer.o)
 .debug_frame   0x00000000       0x38 C:/ProgramData/MATLAB/SupportPackages/R2025b/3P.instrset/gnuarm-armcortex.instrset/win/bin/../lib/gcc/arm-none-eabi/13.2.1/thumb/v7e-m+fp/hard\libg_nano.a(libc_a-freer.o)
 .ARM.attributes
                0x00000000       0x34 C:/ProgramData/MATLAB/SupportPackages/R2025b/3P.instrset/gnuarm-armcortex.instrset/win/bin/../lib/gcc/arm-none-eabi/13.2.1/thumb/v7e-m+fp/hard\libg_nano.a(libc_a-freer.o)
 .text          0x00000000        0x0 C:/ProgramData/MATLAB/SupportPackages/R2025b/3P.instrset/gnuarm-armcortex.instrset/win/bin/../lib/gcc/arm-none-eabi/13.2.1/thumb/v7e-m+fp/hard\libg_nano.a(libc_a-mallocr.o)
 .data          0x00000000        0x0 C:/ProgramData/MATLAB/SupportPackages/R2025b/3P.instrset/gnuarm-armcortex.instrset/win/bin/../lib/gcc/arm-none-eabi/13.2.1/thumb/v7e-m+fp/hard\libg_nano.a(libc_a-mallocr.o)
 .bss           0x00000000        0x0 C:/ProgramData/MATLAB/SupportPackages/R2025b/3P.instrset/gnuarm-armcortex.instrset/win/bin/../lib/gcc/arm-none-eabi/13.2.1/thumb/v7e-m+fp/hard\libg_nano.a(libc_a-mallocr.o)
 .text.sbrk_aligned
                0x00000000       0x44 C:/ProgramData/MATLAB/SupportPackages/R2025b/3P.instrset/gnuarm-armcortex.instrset/win/bin/../lib/gcc/arm-none-eabi/13.2.1/thumb/v7e-m+fp/hard\libg_nano.a(libc_a-mallocr.o)
 .text._malloc_r
                0x00000000      0x100 C:/ProgramData/MATLAB/SupportPackages/R2025b/3P.instrset/gnuarm-armcortex.instrset/win/bin/../lib/gcc/arm-none-eabi/13.2.1/thumb/v7e-m+fp/hard\libg_nano.a(libc_a-mallocr.o)
 .bss.__malloc_sbrk_start
                0x00000000        0x4 C:/ProgramData/MATLAB/SupportPackages/R2025b/3P.instrset/gnuarm-armcortex.instrset/win/bin/../lib/gcc/arm-none-eabi/13.2.1/thumb/v7e-m+fp/hard\libg_nano.a(libc_a-mallocr.o)
 .bss.__malloc_free_list
                0x00000000        0x4 C:/ProgramData/MATLAB/SupportPackages/R2025b/3P.instrset/gnuarm-armcortex.instrset/win/bin/../lib/gcc/arm-none-eabi/13.2.1/thumb/v7e-m+fp/hard\libg_nano.a(libc_a-mallocr.o)
 .debug_frame   0x00000000       0x50 C:/ProgramData/MATLAB/SupportPackages/R2025b/3P.instrset/gnuarm-armcortex.instrset/win/bin/../lib/gcc/arm-none-eabi/13.2.1/thumb/v7e-m+fp/hard\libg_nano.a(libc_a-mallocr.o)
 .ARM.attributes
                0x00000000       0x34 C:/ProgramData/MATLAB/SupportPackages/R2025b/3P.instrset/gnuarm-armcortex.instrset/win/bin/../lib/gcc/arm-none-eabi/13.2.1/thumb/v7e-m+fp/hard\libg_nano.a(libc_a-mallocr.o)
 .text          0x00000000        0x0 C:/ProgramData/MATLAB/SupportPackages/R2025b/3P.instrset/gnuarm-armcortex.instrset/win/bin/../lib/gcc/arm-none-eabi/13.2.1/thumb/v7e-m+fp/hard\libg_nano.a(libc_a-mlock.o)
 .data          0x00000000        0x0 C:/ProgramData/MATLAB/SupportPackages/R2025b/3P.instrset/gnuarm-armcortex.instrset/win/bin/../lib/gcc/arm-none-eabi/13.2.1/thumb/v7e-m+fp/hard\libg_nano.a(libc_a-mlock.o)
 .bss           0x00000000        0x0 C:/ProgramData/MATLAB/SupportPackages/R2025b/3P.instrset/gnuarm-armcortex.instrset/win/bin/../lib/gcc/arm-none-eabi/13.2.1/thumb/v7e-m+fp/hard\libg_nano.a(libc_a-mlock.o)
 .text.__malloc_lock
                0x00000000        0xc C:/ProgramData/MATLAB/SupportPackages/R2025b/3P.instrset/gnuarm-armcortex.instrset/win/bin/../lib/gcc/arm-none-eabi/13.2.1/thumb/v7e-m+fp/hard\libg_nano.a(libc_a-mlock.o)
 .text.__malloc_unlock
                0x00000000        0xc C:/ProgramData/MATLAB/SupportPackages/R2025b/3P.instrset/gnuarm-armcortex.instrset/win/bin/../lib/gcc/arm-none-eabi/13.2.1/thumb/v7e-m+fp/hard\libg_nano.a(libc_a-mlock.o)
 .debug_frame   0x00000000       0x30 C:/ProgramData/MATLAB/SupportPackages/R2025b/3P.instrset/gnuarm-armcortex.instrset/win/bin/../lib/gcc/arm-none-eabi/13.2.1/thumb/v7e-m+fp/hard\libg_nano.a(libc_a-mlock.o)
 .ARM.attributes
                0x00000000       0x34 C:/ProgramData/MATLAB/SupportPackages/R2025b/3P.instrset/gnuarm-armcortex.instrset/win/bin/../lib/gcc/arm-none-eabi/13.2.1/thumb/v7e-m+fp/hard\libg_nano.a(libc_a-mlock.o)
 .text          0x00000000        0x0 C:/ProgramData/MATLAB/SupportPackages/R2025b/3P.instrset/gnuarm-armcortex.instrset/win/bin/../lib/gcc/arm-none-eabi/13.2.1/thumb/v7e-m+fp/hard\libg_nano.a(libc_a-fflush.o)
 .data          0x00000000        0x0 C:/ProgramData/MATLAB/SupportPackages/R2025b/3P.instrset/gnuarm-armcortex.instrset/win/bin/../lib/gcc/arm-none-eabi/13.2.1/thumb/v7e-m+fp/hard\libg_nano.a(libc_a-fflush.o)
 .bss           0x00000000        0x0 C:/ProgramData/MATLAB/SupportPackages/R2025b/3P.instrset/gnuarm-armcortex.instrset/win/bin/../lib/gcc/arm-none-eabi/13.2.1/thumb/v7e-m+fp/hard\libg_nano.a(libc_a-fflush.o)
 .text.__sflush_r
                0x00000000      0x108 C:/ProgramData/MATLAB/SupportPackages/R2025b/3P.instrset/gnuarm-armcortex.instrset/win/bin/../lib/gcc/arm-none-eabi/13.2.1/thumb/v7e-m+fp/hard\libg_nano.a(libc_a-fflush.o)
 .text._fflush_r
                0x00000000       0x50 C:/ProgramData/MATLAB/SupportPackages/R2025b/3P.instrset/gnuarm-armcortex.instrset/win/bin/../lib/gcc/arm-none-eabi/13.2.1/thumb/v7e-m+fp/hard\libg_nano.a(libc_a-fflush.o)
 .text.fflush   0x00000000       0x28 C:/ProgramData/MATLAB/SupportPackages/R2025b/3P.instrset/gnuarm-armcortex.instrset/win/bin/../lib/gcc/arm-none-eabi/13.2.1/thumb/v7e-m+fp/hard\libg_nano.a(libc_a-fflush.o)
 .debug_frame   0x00000000       0x5c C:/ProgramData/MATLAB/SupportPackages/R2025b/3P.instrset/gnuarm-armcortex.instrset/win/bin/../lib/gcc/arm-none-eabi/13.2.1/thumb/v7e-m+fp/hard\libg_nano.a(libc_a-fflush.o)
 .ARM.attributes
                0x00000000       0x34 C:/ProgramData/MATLAB/SupportPackages/R2025b/3P.instrset/gnuarm-armcortex.instrset/win/bin/../lib/gcc/arm-none-eabi/13.2.1/thumb/v7e-m+fp/hard\libg_nano.a(libc_a-fflush.o)
 .text          0x00000000        0x0 C:/ProgramData/MATLAB/SupportPackages/R2025b/3P.instrset/gnuarm-armcortex.instrset/win/bin/../lib/gcc/arm-none-eabi/13.2.1/thumb/v7e-m+fp/hard\libg_nano.a(libc_a-sbrkr.o)
 .data          0x00000000        0x0 C:/ProgramData/MATLAB/SupportPackages/R2025b/3P.instrset/gnuarm-armcortex.instrset/win/bin/../lib/gcc/arm-none-eabi/13.2.1/thumb/v7e-m+fp/hard\libg_nano.a(libc_a-sbrkr.o)
 .bss           0x00000000        0x0 C:/ProgramData/MATLAB/SupportPackages/R2025b/3P.instrset/gnuarm-armcortex.instrset/win/bin/../lib/gcc/arm-none-eabi/13.2.1/thumb/v7e-m+fp/hard\libg_nano.a(libc_a-sbrkr.o)
 .text._sbrk_r  0x00000000       0x20 C:/ProgramData/MATLAB/SupportPackages/R2025b/3P.instrset/gnuarm-armcortex.instrset/win/bin/../lib/gcc/arm-none-eabi/13.2.1/thumb/v7e-m+fp/hard\libg_nano.a(libc_a-sbrkr.o)
 .debug_frame   0x00000000       0x2c C:/ProgramData/MATLAB/SupportPackages/R2025b/3P.instrset/gnuarm-armcortex.instrset/win/bin/../lib/gcc/arm-none-eabi/13.2.1/thumb/v7e-m+fp/hard\libg_nano.a(libc_a-sbrkr.o)
 .ARM.attributes
                0x00000000       0x34 C:/ProgramData/MATLAB/SupportPackages/R2025b/3P.instrset/gnuarm-armcortex.instrset/win/bin/../lib/gcc/arm-none-eabi/13.2.1/thumb/v7e-m+fp/hard\libg_nano.a(libc_a-sbrkr.o)
 .text          0x00000000        0x0 C:/ProgramData/MATLAB/SupportPackages/R2025b/3P.instrset/gnuarm-armcortex.instrset/win/bin/../lib/gcc/arm-none-eabi/13.2.1/thumb/v7e-m+fp/hard/crtend.o
 .data          0x00000000        0x0 C:/ProgramData/MATLAB/SupportPackages/R2025b/3P.instrset/gnuarm-armcortex.instrset/win/bin/../lib/gcc/arm-none-eabi/13.2.1/thumb/v7e-m+fp/hard/crtend.o
 .bss           0x00000000        0x0 C:/ProgramData/MATLAB/SupportPackages/R2025b/3P.instrset/gnuarm-armcortex.instrset/win/bin/../lib/gcc/arm-none-eabi/13.2.1/thumb/v7e-m+fp/hard/crtend.o
 .rodata.all_implied_fbits
                0x00000000       0x24 C:/ProgramData/MATLAB/SupportPackages/R2025b/3P.instrset/gnuarm-armcortex.instrset/win/bin/../lib/gcc/arm-none-eabi/13.2.1/thumb/v7e-m+fp/hard/crtend.o
 .eh_frame      0x00000000        0x4 C:/ProgramData/MATLAB/SupportPackages/R2025b/3P.instrset/gnuarm-armcortex.instrset/win/bin/../lib/gcc/arm-none-eabi/13.2.1/thumb/v7e-m+fp/hard/crtend.o
 .text          0x00000000        0x0 C:/ProgramData/MATLAB/SupportPackages/R2025b/3P.instrset/gnuarm-armcortex.instrset/win/bin/../lib/gcc/arm-none-eabi/13.2.1/thumb/v7e-m+fp/hard/crtn.o
 .data          0x00000000        0x0 C:/ProgramData/MATLAB/SupportPackages/R2025b/3P.instrset/gnuarm-armcortex.instrset/win/bin/../lib/gcc/arm-none-eabi/13.2.1/thumb/v7e-m+fp/hard/crtn.o
 .bss           0x00000000        0x0 C:/ProgramData/MATLAB/SupportPackages/R2025b/3P.instrset/gnuarm-armcortex.instrset/win/bin/../lib/gcc/arm-none-eabi/13.2.1/thumb/v7e-m+fp/hard/crtn.o

Memory Configuration

Name             Origin             Length             Attributes
RAM              0x20000000         0x00020000         xrw
FLASH            0x08000000         0x00080000         xr
*default*        0x00000000         0xffffffff

Linker script and memory map

LOAD C:/ProgramData/MATLAB/SupportPackages/R2025b/3P.instrset/gnuarm-armcortex.instrset/win/bin/../lib/gcc/arm-none-eabi/13.2.1/thumb/v7e-m+fp/hard/crti.o
LOAD C:/ProgramData/MATLAB/SupportPackages/R2025b/3P.instrset/gnuarm-armcortex.instrset/win/bin/../lib/gcc/arm-none-eabi/13.2.1/thumb/v7e-m+fp/hard/crtbegin.o
LOAD C:/ProgramData/MATLAB/SupportPackages/R2025b/3P.instrset/gnuarm-armcortex.instrset/win/bin/../lib/gcc/arm-none-eabi/13.2.1/thumb/v7e-m+fp/hard/crt0.o
LOAD xil_interface_lib.c.o
LOAD xil_data_stream.c.o
LOAD xil_services.c.o
LOAD xil_interface.c.o
LOAD xilcomms_rtiostream.c.o
LOAD xil_rtiostream.c.o
LOAD rtiostream_utils.c.o
LOAD coder_assumptions_app.c.o
LOAD coder_assumptions_data_stream.c.o
LOAD coder_assumptions_rtiostream.c.o
LOAD pil_main.c.o
LOAD rtiostream_serial.c.o
LOAD stm_usart.c.o
LOAD stm_lpuart.c.o
LOAD platform_timer.c.o
LOAD main.c.o
LOAD stm32f4xx_it.c.o
LOAD stm32f4xx_hal_msp.c.o
LOAD stm32f4xx_hal_timebase_tim.c.o
LOAD stm32f4xx_hal_tim.c.o
LOAD stm32f4xx_hal_tim_ex.c.o
LOAD stm32f4xx_ll_gpio.c.o
LOAD stm32f4xx_ll_dma.c.o
LOAD stm32f4xx_ll_spi.c.o
LOAD stm32f4xx_ll_rcc.c.o
LOAD stm32f4xx_ll_utils.c.o
LOAD stm32f4xx_ll_exti.c.o
LOAD stm32f4xx_hal_rcc.c.o
LOAD stm32f4xx_hal_rcc_ex.c.o
LOAD stm32f4xx_hal_flash.c.o
LOAD stm32f4xx_hal_flash_ex.c.o
LOAD stm32f4xx_hal_flash_ramfunc.c.o
LOAD stm32f4xx_hal_gpio.c.o
LOAD stm32f4xx_hal_dma_ex.c.o
LOAD stm32f4xx_hal_dma.c.o
LOAD stm32f4xx_hal_pwr.c.o
LOAD stm32f4xx_hal_pwr_ex.c.o
LOAD stm32f4xx_hal_cortex.c.o
LOAD stm32f4xx_hal.c.o
LOAD stm32f4xx_hal_exti.c.o
LOAD stm32f4xx_ll_usart.c.o
LOAD system_stm32f4xx.c.o
LOAD syscalls.c.o
LOAD sysmem.c.o
LOAD startup_stm32f446retx.s.o
LOAD ../../../../slprj/ert/BMS_MCU_CODE/BMS_MCU_CODE_rtwlib.lib
LOAD C:/Users/odona/OneDrive/Yara/Thesis/BMS_Thesis/slprj/ert/_sharedutils/rtwshared.lib
LOAD C:/Users/odona/OneDrive/Yara/Thesis/BMS_Thesis/slprj/ert/BMS_MCU_CODE/coderassumptions/lib/BMS_MCU_CODE_ca.lib
LOAD C:/ProgramData/MATLAB/SupportPackages/R2025b/3P.instrset/cmsis_dsp.instrset/Lib/GCC/arm_cortexm4ldfsp_math/libCMSISDSP.a
LOAD C:/ProgramData/MATLAB/SupportPackages/R2025b/toolbox/shared/supportpackages/stm32/lib/GCC/libmw_pdmfilter_m4_spfp.lib
LOAD C:/ProgramData/MATLAB/SupportPackages/R2025b/3P.instrset/gnuarm-armcortex.instrset/win/bin/../lib/gcc/arm-none-eabi/13.2.1/thumb/v7e-m+fp/hard\libstdc++_nano.a
LOAD C:/ProgramData/MATLAB/SupportPackages/R2025b/3P.instrset/gnuarm-armcortex.instrset/win/bin/../lib/gcc/arm-none-eabi/13.2.1/thumb/v7e-m+fp/hard\libm.a
START GROUP
LOAD C:/ProgramData/MATLAB/SupportPackages/R2025b/3P.instrset/gnuarm-armcortex.instrset/win/bin/../lib/gcc/arm-none-eabi/13.2.1/thumb/v7e-m+fp/hard\libgcc.a
LOAD C:/ProgramData/MATLAB/SupportPackages/R2025b/3P.instrset/gnuarm-armcortex.instrset/win/bin/../lib/gcc/arm-none-eabi/13.2.1/thumb/v7e-m+fp/hard\libg_nano.a
LOAD C:/ProgramData/MATLAB/SupportPackages/R2025b/3P.instrset/gnuarm-armcortex.instrset/win/bin/../lib/gcc/arm-none-eabi/13.2.1/thumb/v7e-m+fp/hard\libc_nano.a
END GROUP
START GROUP
LOAD C:/ProgramData/MATLAB/SupportPackages/R2025b/3P.instrset/gnuarm-armcortex.instrset/win/bin/../lib/gcc/arm-none-eabi/13.2.1/thumb/v7e-m+fp/hard\libgcc.a
LOAD C:/ProgramData/MATLAB/SupportPackages/R2025b/3P.instrset/gnuarm-armcortex.instrset/win/bin/../lib/gcc/arm-none-eabi/13.2.1/thumb/v7e-m+fp/hard\libc_nano.a
LOAD C:/ProgramData/MATLAB/SupportPackages/R2025b/3P.instrset/gnuarm-armcortex.instrset/win/bin/../lib/gcc/arm-none-eabi/13.2.1/thumb/v7e-m+fp/hard\libnosys.a
END GROUP
START GROUP
LOAD C:/ProgramData/MATLAB/SupportPackages/R2025b/3P.instrset/gnuarm-armcortex.instrset/win/bin/../lib/gcc/arm-none-eabi/13.2.1/thumb/v7e-m+fp/hard\libgcc.a
LOAD C:/ProgramData/MATLAB/SupportPackages/R2025b/3P.instrset/gnuarm-armcortex.instrset/win/bin/../lib/gcc/arm-none-eabi/13.2.1/thumb/v7e-m+fp/hard\libc_nano.a
LOAD C:/ProgramData/MATLAB/SupportPackages/R2025b/3P.instrset/gnuarm-armcortex.instrset/win/bin/../lib/gcc/arm-none-eabi/13.2.1/thumb/v7e-m+fp/hard\libnosys.a
END GROUP
LOAD C:/ProgramData/MATLAB/SupportPackages/R2025b/3P.instrset/gnuarm-armcortex.instrset/win/bin/../lib/gcc/arm-none-eabi/13.2.1/thumb/v7e-m+fp/hard/crtend.o
LOAD C:/ProgramData/MATLAB/SupportPackages/R2025b/3P.instrset/gnuarm-armcortex.instrset/win/bin/../lib/gcc/arm-none-eabi/13.2.1/thumb/v7e-m+fp/hard/crtn.o
                0x20020000                        _estack = (ORIGIN (RAM) + LENGTH (RAM))
                0x00000200                        _Min_Heap_Size = 0x200
                0x00000400                        _Min_Stack_Size = 0x400

.isr_vector     0x08000000      0x1c4
                0x08000000                        . = ALIGN (0x4)
 *(.isr_vector)
 .isr_vector    0x08000000      0x1c4 startup_stm32f446retx.s.o
                0x08000000                g_pfnVectors
                0x080001c4                        . = ALIGN (0x4)

.text           0x080001c8     0x9230
                0x080001c8                        . = ALIGN (0x4)
 *(.text)
 .text          0x080001c8      0x378 C:/ProgramData/MATLAB/SupportPackages/R2025b/3P.instrset/gnuarm-armcortex.instrset/win/bin/../lib/gcc/arm-none-eabi/13.2.1/thumb/v7e-m+fp/hard\libgcc.a(_arm_addsubdf3.o)
                0x080001c8                __aeabi_drsub
                0x080001d0                __aeabi_dsub
                0x080001d0                __subdf3
                0x080001d4                __aeabi_dadd
                0x080001d4                __adddf3
                0x0800044c                __floatunsidf
                0x0800044c                __aeabi_ui2d
                0x0800046c                __floatsidf
                0x0800046c                __aeabi_i2d
                0x08000490                __aeabi_f2d
                0x08000490                __extendsfdf2
                0x080004d4                __floatundidf
                0x080004d4                __aeabi_ul2d
                0x080004e4                __floatdidf
                0x080004e4                __aeabi_l2d
 .text          0x08000540      0x424 C:/ProgramData/MATLAB/SupportPackages/R2025b/3P.instrset/gnuarm-armcortex.instrset/win/bin/../lib/gcc/arm-none-eabi/13.2.1/thumb/v7e-m+fp/hard\libgcc.a(_arm_muldivdf3.o)
                0x08000540                __aeabi_dmul
                0x08000540                __muldf3
                0x08000794                __divdf3
                0x08000794                __aeabi_ddiv
 .text          0x08000964      0x110 C:/ProgramData/MATLAB/SupportPackages/R2025b/3P.instrset/gnuarm-armcortex.instrset/win/bin/../lib/gcc/arm-none-eabi/13.2.1/thumb/v7e-m+fp/hard\libgcc.a(_arm_cmpdf2.o)
                0x08000964                __gtdf2
                0x08000964                __gedf2
                0x0800096c                __ltdf2
                0x0800096c                __ledf2
                0x08000974                __nedf2
                0x08000974                __eqdf2
                0x08000974                __cmpdf2
                0x080009f0                __aeabi_cdrcmple
                0x08000a00                __aeabi_cdcmpeq
                0x08000a00                __aeabi_cdcmple
                0x08000a10                __aeabi_dcmpeq
                0x08000a24                __aeabi_dcmplt
                0x08000a38                __aeabi_dcmple
                0x08000a4c                __aeabi_dcmpge
                0x08000a60                __aeabi_dcmpgt
 .text          0x08000a74       0xa0 C:/ProgramData/MATLAB/SupportPackages/R2025b/3P.instrset/gnuarm-armcortex.instrset/win/bin/../lib/gcc/arm-none-eabi/13.2.1/thumb/v7e-m+fp/hard\libgcc.a(_arm_truncdfsf2.o)
                0x08000a74                __truncdfsf2
                0x08000a74                __aeabi_d2f
 .text          0x08000b14       0x30 C:/ProgramData/MATLAB/SupportPackages/R2025b/3P.instrset/gnuarm-armcortex.instrset/win/bin/../lib/gcc/arm-none-eabi/13.2.1/thumb/v7e-m+fp/hard\libgcc.a(_aeabi_uldivmod.o)
                0x08000b14                __aeabi_uldivmod
 .text          0x08000b44        0x4 C:/ProgramData/MATLAB/SupportPackages/R2025b/3P.instrset/gnuarm-armcortex.instrset/win/bin/../lib/gcc/arm-none-eabi/13.2.1/thumb/v7e-m+fp/hard\libgcc.a(_dvmd_tls.o)
                0x08000b44                __aeabi_idiv0
                0x08000b44                __aeabi_ldiv0
 *(.text*)
 .text.deregister_tm_clones
                0x08000b48       0x1c C:/ProgramData/MATLAB/SupportPackages/R2025b/3P.instrset/gnuarm-armcortex.instrset/win/bin/../lib/gcc/arm-none-eabi/13.2.1/thumb/v7e-m+fp/hard/crtbegin.o
 .text.register_tm_clones
                0x08000b64       0x24 C:/ProgramData/MATLAB/SupportPackages/R2025b/3P.instrset/gnuarm-armcortex.instrset/win/bin/../lib/gcc/arm-none-eabi/13.2.1/thumb/v7e-m+fp/hard/crtbegin.o
 .text.__do_global_dtors_aux
                0x08000b88       0x28 C:/ProgramData/MATLAB/SupportPackages/R2025b/3P.instrset/gnuarm-armcortex.instrset/win/bin/../lib/gcc/arm-none-eabi/13.2.1/thumb/v7e-m+fp/hard/crtbegin.o
 .text.frame_dummy
                0x08000bb0       0x24 C:/ProgramData/MATLAB/SupportPackages/R2025b/3P.instrset/gnuarm-armcortex.instrset/win/bin/../lib/gcc/arm-none-eabi/13.2.1/thumb/v7e-m+fp/hard/crtbegin.o
 .text.getNextXILIOData
                0x08000bd4       0x28 xil_interface_lib.c.o
 .text.processHostToTargetData
                0x08000bfc       0xa4 xil_interface_lib.c.o
 .text.processTargetToHostData
                0x08000ca0       0x78 xil_interface_lib.c.o
 .text.processTargetToHostPreData
                0x08000d18       0x7c xil_interface_lib.c.o
 .text.finalizeCommandResponse
                0x08000d94       0x66 xil_interface_lib.c.o
 *fill*         0x08000dfa        0x2 
 .text.computeNextState
                0x08000dfc      0x1f8 xil_interface_lib.c.o
 .text.xilReadCommandCode
                0x08000ff4       0x88 xil_interface_lib.c.o
 .text.xilProcessMsg
                0x0800107c      0x530 xil_interface_lib.c.o
                0x0800107c                xilProcessMsg
 .text.xilRun   0x080015ac       0x44 xil_interface_lib.c.o
                0x080015ac                xilRun
 .text.resetXILWriteBuffer
                0x080015f0       0x5c xil_data_stream.c.o
                0x080015f0                resetXILWriteBuffer
 .text.silpilInit
                0x0800164c       0x20 xil_data_stream.c.o
                0x0800164c                silpilInit
 .text.sendWriteBuffer
                0x0800166c       0x44 xil_data_stream.c.o
 .text.xilWriteData
                0x080016b0       0x9c xil_data_stream.c.o
                0x080016b0                xilWriteData
 .text.xilReadData
                0x0800174c       0xac xil_data_stream.c.o
                0x0800174c                xilReadData
 .text.xilDataFlush
                0x080017f8       0x40 xil_data_stream.c.o
                0x080017f8                xilDataFlush
 .text.silpilTerminate
                0x08001838        0xc xil_data_stream.c.o
                0x08001838                silpilTerminate
 .text.xilInit  0x08001844       0x44 xil_services.c.o
                0x08001844                xilInit
 .text.xilTerminateComms
                0x08001888       0x16 xil_services.c.o
                0x08001888                xilTerminateComms
 .text.xilProcessParams
                0x0800189e       0x20 xil_interface.c.o
                0x0800189e                xilProcessParams
 .text.xilGetDataTypeInfo
                0x080018be       0xa8 xil_interface.c.o
                0x080018be                xilGetDataTypeInfo
 *fill*         0x08001966        0x2 
 .text.xilInitialize
                0x08001968      0x174 xil_interface.c.o
                0x08001968                xilInitialize
 .text.xilPause
                0x08001adc       0x24 xil_interface.c.o
                0x08001adc                xilPause
 .text.xilSystemInitialize
                0x08001b00       0x4c xil_interface.c.o
                0x08001b00                xilSystemInitialize
 .text.xilSystemReset
                0x08001b4c       0x24 xil_interface.c.o
                0x08001b4c                xilSystemReset
 .text.xilGetHostToTargetData
                0x08001b70      0x150 xil_interface.c.o
                0x08001b70                xilGetHostToTargetData
 .text.xilGetTargetToHostPreData
                0x08001cc0       0x3a xil_interface.c.o
                0x08001cc0                xilGetTargetToHostPreData
 *fill*         0x08001cfa        0x2 
 .text.xilOutput
                0x08001cfc      0x104 xil_interface.c.o
                0x08001cfc                xilOutput
 .text.xilUpdate
                0x08001e00       0x22 xil_interface.c.o
                0x08001e00                xilUpdate
 *fill*         0x08001e22        0x2 
 .text.xilGetTargetToHostData
                0x08001e24      0x920 xil_interface.c.o
                0x08001e24                xilGetTargetToHostData
 .text.xilTerminate
                0x08002744       0x20 xil_interface.c.o
                0x08002744                xilTerminate
 .text.xilInitTargetData
                0x08002764       0x10 xil_interface.c.o
                0x08002764                xilInitTargetData
 .text.xilEnable
                0x08002774       0x22 xil_interface.c.o
                0x08002774                xilEnable
 .text.xilDisable
                0x08002796       0x22 xil_interface.c.o
                0x08002796                xilDisable
 .text.commsInit
                0x080027b8       0x34 xilcomms_rtiostream.c.o
                0x080027b8                commsInit
 .text.commsTerminate
                0x080027ec       0x24 xilcomms_rtiostream.c.o
                0x080027ec                commsTerminate
 .text.commsEnqueueBuffer
                0x08002810       0x68 xilcomms_rtiostream.c.o
                0x08002810                commsEnqueueBuffer
 .text.rtiostreamReadMessage
                0x08002878       0x7c xilcomms_rtiostream.c.o
                0x08002878                rtiostreamReadMessage
 .text.xilTgtAppSvcCreate
                0x080028f4       0x10 xil_rtiostream.c.o
                0x080028f4                xilTgtAppSvcCreate
 .text.xilTgtAppSvcDestroy
                0x08002904        0xe xil_rtiostream.c.o
                0x08002904                xilTgtAppSvcDestroy
 *fill*         0x08002912        0x2 
 .text.xilTgtAppSvcAllocBuffer
                0x08002914       0x24 xil_rtiostream.c.o
                0x08002914                xilTgtAppSvcAllocBuffer
 .text.xilTgtAppSvcGetBufferDataPtr
                0x08002938       0x1c xil_rtiostream.c.o
                0x08002938                xilTgtAppSvcGetBufferDataPtr
 .text.xilTgtAppSvcSend
                0x08002954       0x24 xil_rtiostream.c.o
                0x08002954                xilTgtAppSvcSend
 .text.rtIOStreamBlockingSend
                0x08002978       0x64 rtiostream_utils.c.o
                0x08002978                rtIOStreamBlockingSend
 .text.rtIOStreamBlockingRecv
                0x080029dc       0x64 rtiostream_utils.c.o
                0x080029dc                rtIOStreamBlockingRecv
 .text.coderAssumptionsRun
                0x08002a40       0x18 coder_assumptions_app.c.o
                0x08002a40                coderAssumptionsRun
 .text.runChecks
                0x08002a58       0x6e coder_assumptions_app.c.o
 .text.transmitMemUnitBytes
                0x08002ac6       0x3e coder_assumptions_app.c.o
 .text.sendPWS  0x08002b04       0xc8 coder_assumptions_app.c.o
 .text.sendHWImpl
                0x08002bcc       0xa4 coder_assumptions_app.c.o
 .text.sendHardwareImplementationResult
                0x08002c70      0x2bc coder_assumptions_app.c.o
 .text.sendResult
                0x08002f2c       0xa8 coder_assumptions_app.c.o
 .text.coderAssumptionsWriteData
                0x08002fd4       0x6c coder_assumptions_data_stream.c.o
                0x08002fd4                coderAssumptionsWriteData
 .text.resetCoderAssumptionsWriteBuffer
                0x08003040       0x40 coder_assumptions_data_stream.c.o
                0x08003040                resetCoderAssumptionsWriteBuffer
 .text.coderAssumptionsSendWriteBuffer
                0x08003080       0x40 coder_assumptions_data_stream.c.o
                0x08003080                coderAssumptionsSendWriteBuffer
 .text.coderAssumptionsInit
                0x080030c0       0x20 coder_assumptions_data_stream.c.o
                0x080030c0                coderAssumptionsInit
 .text.coderAssumptionsTerminate
                0x080030e0        0xc coder_assumptions_data_stream.c.o
                0x080030e0                coderAssumptionsTerminate
 .text.coderAssumpTgtAppSvcCreate
                0x080030ec       0x10 coder_assumptions_rtiostream.c.o
                0x080030ec                coderAssumpTgtAppSvcCreate
 .text.coderAssumpTgtAppSvcDestroy
                0x080030fc        0xe coder_assumptions_rtiostream.c.o
                0x080030fc                coderAssumpTgtAppSvcDestroy
 *fill*         0x0800310a        0x2 
 .text.coderAssumpTgtAppSvcAllocBuffer
                0x0800310c       0x24 coder_assumptions_rtiostream.c.o
                0x0800310c                coderAssumpTgtAppSvcAllocBuffer
 .text.coderAssumpTgtAppSvcGetBufferDataPtr
                0x08003130       0x1c coder_assumptions_rtiostream.c.o
                0x08003130                coderAssumpTgtAppSvcGetBufferDataPtr
 .text.coderAssumpTgtAppSvcSend
                0x0800314c       0x24 coder_assumptions_rtiostream.c.o
                0x0800314c                coderAssumpTgtAppSvcSend
 .text.PILmain  0x08003170       0x90 pil_main.c.o
                0x08003170                PILmain
 .text.main     0x08003200       0x32 pil_main.c.o
                0x08003200                main
 *fill*         0x08003232        0x2 
 .text.rtIOStreamOpen
                0x08003234       0x44 rtiostream_serial.c.o
                0x08003234                rtIOStreamOpen
 .text.rtIOStreamSend
                0x08003278       0x38 rtiostream_serial.c.o
                0x08003278                rtIOStreamSend
 .text.rtIOStreamRecv
                0x080032b0       0x48 rtiostream_serial.c.o
                0x080032b0                rtIOStreamRecv
 .text.rtIOStreamClose
                0x080032f8       0x20 rtiostream_serial.c.o
                0x080032f8                rtIOStreamClose
 .text.__NVIC_GetPriorityGrouping
                0x08003318       0x1c stm_usart.c.o
 .text.__NVIC_EnableIRQ
                0x08003334       0x3c stm_usart.c.o
 .text.__NVIC_SetPriority
                0x08003370       0x54 stm_usart.c.o
 .text.NVIC_EncodePriority
                0x080033c4       0x66 stm_usart.c.o
 *fill*         0x0800342a        0x2 
 .text.LL_DMA_EnableStream
                0x0800342c       0x40 stm_usart.c.o
 .text.LL_DMA_DisableStream
                0x0800346c       0x40 stm_usart.c.o
 .text.LL_DMA_GetMode
                0x080034ac       0x30 stm_usart.c.o
 .text.LL_DMA_SetDataLength
                0x080034dc       0x48 stm_usart.c.o
 .text.LL_DMA_GetDataLength
                0x08003524       0x2c stm_usart.c.o
 .text.LL_DMA_ConfigAddresses
                0x08003550       0x78 stm_usart.c.o
 .text.LL_DMA_IsActiveFlag_TC5
                0x080035c8       0x28 stm_usart.c.o
 .text.LL_DMA_ClearFlag_TC5
                0x080035f0       0x1c stm_usart.c.o
 .text.LL_DMA_EnableIT_TC
                0x0800360c       0x40 stm_usart.c.o
 .text.LL_DMA_DisableIT_TC
                0x0800364c       0x40 stm_usart.c.o
 .text.LL_DMA_IsEnabledIT_TC
                0x0800368c       0x38 stm_usart.c.o
 .text.LL_USART_Enable
                0x080036c4       0x20 stm_usart.c.o
 .text.LL_USART_Disable
                0x080036e4       0x20 stm_usart.c.o
 .text.LL_USART_IsActiveFlag_PE
                0x08003704       0x26 stm_usart.c.o
 .text.LL_USART_IsActiveFlag_FE
                0x0800372a       0x26 stm_usart.c.o
 .text.LL_USART_IsActiveFlag_NE
                0x08003750       0x26 stm_usart.c.o
 .text.LL_USART_IsActiveFlag_ORE
                0x08003776       0x26 stm_usart.c.o
 .text.LL_USART_IsActiveFlag_TC
                0x0800379c       0x26 stm_usart.c.o
 .text.LL_USART_IsActiveFlag_TXE
                0x080037c2       0x26 stm_usart.c.o
 .text.LL_USART_ClearFlag_PE
                0x080037e8       0x24 stm_usart.c.o
 .text.LL_USART_ClearFlag_ORE
                0x0800380c       0x24 stm_usart.c.o
 .text.LL_USART_EnableIT_RXNE
                0x08003830       0x46 stm_usart.c.o
 .text.LL_USART_EnableIT_PE
                0x08003876       0x46 stm_usart.c.o
 .text.LL_USART_EnableIT_ERROR
                0x080038bc       0x46 stm_usart.c.o
 .text.LL_USART_DisableIT_IDLE
                0x08003902       0x46 stm_usart.c.o
 .text.LL_USART_DisableIT_RXNE
                0x08003948       0x46 stm_usart.c.o
 .text.LL_USART_DisableIT_TXE
                0x0800398e       0x46 stm_usart.c.o
 .text.LL_USART_DisableIT_PE
                0x080039d4       0x46 stm_usart.c.o
 .text.LL_USART_DisableIT_ERROR
                0x08003a1a       0x46 stm_usart.c.o
 .text.LL_USART_EnableDMAReq_RX
                0x08003a60       0x46 stm_usart.c.o
 .text.LL_USART_DisableDMAReq_RX
                0x08003aa6       0x46 stm_usart.c.o
 .text.LL_USART_EnableDMAReq_TX
                0x08003aec       0x46 stm_usart.c.o
 .text.LL_USART_DisableDMAReq_TX
                0x08003b32       0x46 stm_usart.c.o
 .text.LL_USART_DMA_GetRegAddr
                0x08003b78       0x18 stm_usart.c.o
 .text.LL_USART_ReceiveData8
                0x08003b90       0x1a stm_usart.c.o
 .text.LL_USART_TransmitData8
                0x08003baa       0x1e stm_usart.c.o
 .text.getAvailableDataInBuffer
                0x08003bc8       0xcc stm_usart.c.o
                0x08003bc8                getAvailableDataInBuffer
 .text.getBytesToBeReadFromBuffer
                0x08003c94       0x6e stm_usart.c.o
                0x08003c94                getBytesToBeReadFromBuffer
 .text.readDataFromBuffer
                0x08003d02       0xcc stm_usart.c.o
                0x08003d02                readDataFromBuffer
 .text.UART_RXDMAInterruptHandler
                0x08003dce       0xd4 stm_usart.c.o
                0x08003dce                UART_RXDMAInterruptHandler
 .text.UART_IsActiveFlagError
                0x08003ea2       0xe0 stm_usart.c.o
                0x08003ea2                UART_IsActiveFlagError
 *fill*         0x08003f82        0x2 
 .text.USART2_IRQHandler
                0x08003f84       0x14 stm_usart.c.o
                0x08003f84                USART2_IRQHandler
 .text.DMA1_Stream5_IRQHandler
                0x08003f98       0x20 stm_usart.c.o
                0x08003f98                DMA1_Stream5_IRQHandler
 .text.UART_ConfigureReceiveDMA
                0x08003fb8       0x88 stm_usart.c.o
                0x08003fb8                UART_ConfigureReceiveDMA
 .text.UART_ConfigureTransmitDMA
                0x08004040       0x54 stm_usart.c.o
                0x08004040                UART_ConfigureTransmitDMA
 .text.getReadErrorStatus
                0x08004094       0xc8 stm_usart.c.o
                0x08004094                getReadErrorStatus
 .text.MW_UART_Initialize
                0x0800415c      0x198 stm_usart.c.o
                0x0800415c                MW_UART_Initialize
 .text.MW_UART_ReceiveUsingBuffer
                0x080042f4       0x5c stm_usart.c.o
                0x080042f4                MW_UART_ReceiveUsingBuffer
 .text.MW_UART_TransmitUsingPolling
                0x08004350      0x184 stm_usart.c.o
                0x08004350                MW_UART_TransmitUsingPolling
 .text.MW_UART_DeInit
                0x080044d4       0xaa stm_usart.c.o
                0x080044d4                MW_UART_DeInit
 *fill*         0x0800457e        0x2 
 .text.PeriphCommonClock_Config
                0x08004580       0x10 platform_timer.c.o
                0x08004580                PeriphCommonClock_Config
 .text.getCurrentTimestampInMicros
                0x08004590       0x40 platform_timer.c.o
                0x08004590                getCurrentTimestampInMicros
 .text.returnTimeElapsed
                0x080045d0       0x2c platform_timer.c.o
                0x080045d0                returnTimeElapsed
 .text.__NVIC_GetPriorityGrouping
                0x080045fc       0x1c main.c.o
 .text.__NVIC_EnableIRQ
                0x08004618       0x3c main.c.o
 .text.__NVIC_SetPriority
                0x08004654       0x54 main.c.o
 .text.NVIC_EncodePriority
                0x080046a8       0x66 main.c.o
 *fill*         0x0800470e        0x2 
 .text.LL_DMA_SetDataTransferDirection
                0x08004710       0x48 main.c.o
 .text.LL_DMA_SetMode
                0x08004758       0x48 main.c.o
 .text.LL_DMA_SetPeriphIncMode
                0x080047a0       0x48 main.c.o
 .text.LL_DMA_SetMemoryIncMode
                0x080047e8       0x48 main.c.o
 .text.LL_DMA_SetPeriphSize
                0x08004830       0x48 main.c.o
 .text.LL_DMA_SetMemorySize
                0x08004878       0x48 main.c.o
 .text.LL_DMA_SetStreamPriorityLevel
                0x080048c0       0x48 main.c.o
 .text.LL_DMA_SetChannelSelection
                0x08004908       0x48 main.c.o
 .text.LL_DMA_DisableFifoMode
                0x08004950       0x40 main.c.o
 .text.LL_RCC_HSI_Enable
                0x08004990       0x20 main.c.o
 .text.LL_RCC_HSI_IsReady
                0x080049b0       0x24 main.c.o
 .text.LL_RCC_HSI_SetCalibTrimming
                0x080049d4       0x2c main.c.o
 .text.LL_RCC_SetSysClkSource
                0x08004a00       0x28 main.c.o
 .text.LL_RCC_GetSysClkSource
                0x08004a28       0x1c main.c.o
 .text.LL_RCC_SetAHBPrescaler
                0x08004a44       0x28 main.c.o
 .text.LL_RCC_SetAPB1Prescaler
                0x08004a6c       0x28 main.c.o
 .text.LL_RCC_SetAPB2Prescaler
                0x08004a94       0x28 main.c.o
 .text.LL_RCC_SetTIMPrescaler
                0x08004abc       0x2c main.c.o
 .text.LL_RCC_PLL_Enable
                0x08004ae8       0x20 main.c.o
 .text.LL_RCC_PLL_IsReady
                0x08004b08       0x28 main.c.o
 .text.LL_RCC_PLL_ConfigDomain_SYS
                0x08004b30       0x5c main.c.o
 .text.LL_AHB1_GRP1_EnableClock
                0x08004b8c       0x30 main.c.o
 .text.LL_APB1_GRP1_EnableClock
                0x08004bbc       0x30 main.c.o
 .text.LL_APB2_GRP1_EnableClock
                0x08004bec       0x30 main.c.o
 .text.LL_SYSCFG_SetEXTISource
                0x08004c1c       0x6c main.c.o
 .text.LL_FLASH_SetLatency
                0x08004c88       0x28 main.c.o
 .text.LL_FLASH_GetLatency
                0x08004cb0       0x1c main.c.o
 .text.LL_PWR_DisableOverDriveMode
                0x08004ccc       0x20 main.c.o
 .text.LL_PWR_SetRegulVoltageScaling
                0x08004cec       0x28 main.c.o
 .text.LL_PWR_IsActiveFlag_VOS
                0x08004d14       0x28 main.c.o
 .text.LL_SPI_SetStandard
                0x08004d3c       0x26 main.c.o
 .text.LL_USART_Enable
                0x08004d62       0x20 main.c.o
 .text.LL_USART_ConfigAsyncMode
                0x08004d82       0x2c main.c.o
 .text.LL_GPIO_SetPinMode
                0x08004dae       0x7a main.c.o
 .text.LL_GPIO_SetPinPull
                0x08004e28       0x7a main.c.o
 .text.LL_GPIO_ResetOutputPin
                0x08004ea2       0x1e main.c.o
 .text.SystemClock_Config
                0x08004ec0       0xb0 main.c.o
                0x08004ec0                SystemClock_Config
 .text.MX_SPI1_Init
                0x08004f70       0xa4 main.c.o
                0x08004f70                MX_SPI1_Init
 .text.MX_USART2_UART_Init
                0x08005014      0x100 main.c.o
                0x08005014                MX_USART2_UART_Init
 .text.MX_DMA_Init
                0x08005114       0x30 main.c.o
                0x08005114                MX_DMA_Init
 .text.MX_GPIO_Init
                0x08005144       0xb0 main.c.o
                0x08005144                MX_GPIO_Init
 .text.HAL_TIM_PeriodElapsedCallback
                0x080051f4       0x24 main.c.o
                0x080051f4                HAL_TIM_PeriodElapsedCallback
 .text.Error_Handler
                0x08005218        0xc main.c.o
                0x08005218                Error_Handler
 .text.NMI_Handler
                0x08005224        0x8 stm32f4xx_it.c.o
                0x08005224                NMI_Handler
 .text.HardFault_Handler
                0x0800522c        0x8 stm32f4xx_it.c.o
                0x0800522c                HardFault_Handler
 .text.MemManage_Handler
                0x08005234        0x8 stm32f4xx_it.c.o
                0x08005234                MemManage_Handler
 .text.BusFault_Handler
                0x0800523c        0x8 stm32f4xx_it.c.o
                0x0800523c                BusFault_Handler
 .text.UsageFault_Handler
                0x08005244        0x8 stm32f4xx_it.c.o
                0x08005244                UsageFault_Handler
 .text.SVC_Handler
                0x0800524c        0xe stm32f4xx_it.c.o
                0x0800524c                SVC_Handler
 .text.DebugMon_Handler
                0x0800525a        0xe stm32f4xx_it.c.o
                0x0800525a                DebugMon_Handler
 .text.PendSV_Handler
                0x08005268        0xe stm32f4xx_it.c.o
                0x08005268                PendSV_Handler
 .text.SysTick_Handler
                0x08005276        0xe stm32f4xx_it.c.o
                0x08005276                SysTick_Handler
 .text.TIM5_IRQHandler
                0x08005284       0x14 stm32f4xx_it.c.o
                0x08005284                TIM5_IRQHandler
 .text.HAL_MspInit
                0x08005298       0x50 stm32f4xx_hal_msp.c.o
                0x08005298                HAL_MspInit
 .text.HAL_InitTick
                0x080052e8       0xf8 stm32f4xx_hal_timebase_tim.c.o
                0x080052e8                HAL_InitTick
 .text.HAL_TIM_Base_Init
                0x080053e0       0x9e stm32f4xx_hal_tim.c.o
                0x080053e0                HAL_TIM_Base_Init
 .text.HAL_TIM_Base_MspInit
                0x0800547e       0x14 stm32f4xx_hal_tim.c.o
                0x0800547e                HAL_TIM_Base_MspInit
 *fill*         0x08005492        0x2 
 .text.HAL_TIM_Base_Start_IT
                0x08005494       0xe0 stm32f4xx_hal_tim.c.o
                0x08005494                HAL_TIM_Base_Start_IT
 .text.HAL_TIM_IRQHandler
                0x08005574      0x1e0 stm32f4xx_hal_tim.c.o
                0x08005574                HAL_TIM_IRQHandler
 .text.HAL_TIM_OC_DelayElapsedCallback
                0x08005754       0x14 stm32f4xx_hal_tim.c.o
                0x08005754                HAL_TIM_OC_DelayElapsedCallback
 .text.HAL_TIM_IC_CaptureCallback
                0x08005768       0x14 stm32f4xx_hal_tim.c.o
                0x08005768                HAL_TIM_IC_CaptureCallback
 .text.HAL_TIM_PWM_PulseFinishedCallback
                0x0800577c       0x14 stm32f4xx_hal_tim.c.o
                0x0800577c                HAL_TIM_PWM_PulseFinishedCallback
 .text.HAL_TIM_TriggerCallback
                0x08005790       0x14 stm32f4xx_hal_tim.c.o
                0x08005790                HAL_TIM_TriggerCallback
 .text.TIM_Base_SetConfig
                0x080057a4      0x158 stm32f4xx_hal_tim.c.o
                0x080057a4                TIM_Base_SetConfig
 .text.HAL_TIMEx_CommutCallback
                0x080058fc       0x14 stm32f4xx_hal_tim_ex.c.o
                0x080058fc                HAL_TIMEx_CommutCallback
 .text.HAL_TIMEx_BreakCallback
                0x08005910       0x14 stm32f4xx_hal_tim_ex.c.o
                0x08005910                HAL_TIMEx_BreakCallback
 .text.LL_GPIO_SetPinMode
                0x08005924       0x7a stm32f4xx_ll_gpio.c.o
 .text.LL_GPIO_SetPinOutputType
                0x0800599e       0x30 stm32f4xx_ll_gpio.c.o
 .text.LL_GPIO_SetPinSpeed
                0x080059ce       0x7a stm32f4xx_ll_gpio.c.o
 .text.LL_GPIO_SetPinPull
                0x08005a48       0x7a stm32f4xx_ll_gpio.c.o
 .text.LL_GPIO_SetAFPin_0_7
                0x08005ac2       0x7a stm32f4xx_ll_gpio.c.o
 .text.LL_GPIO_SetAFPin_8_15
                0x08005b3c       0x7e stm32f4xx_ll_gpio.c.o
 .text.LL_GPIO_Init
                0x08005bba      0x102 stm32f4xx_ll_gpio.c.o
                0x08005bba                LL_GPIO_Init
 .text.LL_SPI_IsEnabled
                0x08005cbc       0x26 stm32f4xx_ll_spi.c.o
 .text.LL_SPI_SetCRCPolynomial
                0x08005ce2       0x20 stm32f4xx_ll_spi.c.o
 .text.LL_SPI_Init
                0x08005d02       0xa4 stm32f4xx_ll_spi.c.o
                0x08005d02                LL_SPI_Init
 *fill*         0x08005da6        0x2 
 .text.LL_RCC_GetSysClkSource
                0x08005da8       0x1c stm32f4xx_ll_rcc.c.o
 .text.LL_RCC_GetAHBPrescaler
                0x08005dc4       0x1c stm32f4xx_ll_rcc.c.o
 .text.LL_RCC_GetAPB1Prescaler
                0x08005de0       0x1c stm32f4xx_ll_rcc.c.o
 .text.LL_RCC_GetAPB2Prescaler
                0x08005dfc       0x1c stm32f4xx_ll_rcc.c.o
 .text.LL_RCC_PLL_GetMainSource
                0x08005e18       0x1c stm32f4xx_ll_rcc.c.o
 .text.LL_RCC_PLL_GetN
                0x08005e34       0x1c stm32f4xx_ll_rcc.c.o
 .text.LL_RCC_PLL_GetP
                0x08005e50       0x1c stm32f4xx_ll_rcc.c.o
 .text.LL_RCC_PLL_GetR
                0x08005e6c       0x1c stm32f4xx_ll_rcc.c.o
 .text.LL_RCC_PLL_GetDivider
                0x08005e88       0x1c stm32f4xx_ll_rcc.c.o
 .text.LL_RCC_GetSystemClocksFreq
                0x08005ea4       0x4a stm32f4xx_ll_rcc.c.o
                0x08005ea4                LL_RCC_GetSystemClocksFreq
 *fill*         0x08005eee        0x2 
 .text.RCC_GetSystemClockFreq
                0x08005ef0       0x88 stm32f4xx_ll_rcc.c.o
                0x08005ef0                RCC_GetSystemClockFreq
 .text.RCC_GetHCLKClockFreq
                0x08005f78       0x2c stm32f4xx_ll_rcc.c.o
                0x08005f78                RCC_GetHCLKClockFreq
 .text.RCC_GetPCLK1ClockFreq
                0x08005fa4       0x28 stm32f4xx_ll_rcc.c.o
                0x08005fa4                RCC_GetPCLK1ClockFreq
 .text.RCC_GetPCLK2ClockFreq
                0x08005fcc       0x28 stm32f4xx_ll_rcc.c.o
                0x08005fcc                RCC_GetPCLK2ClockFreq
 .text.RCC_PLL_GetFreqDomain_SYS
                0x08005ff4       0xa4 stm32f4xx_ll_rcc.c.o
                0x08005ff4                RCC_PLL_GetFreqDomain_SYS
 .text.LL_SetSystemCoreClock
                0x08006098       0x20 stm32f4xx_ll_utils.c.o
                0x08006098                LL_SetSystemCoreClock
 .text.LL_EXTI_EnableIT_0_31
                0x080060b8       0x24 stm32f4xx_ll_exti.c.o
 .text.LL_EXTI_DisableIT_0_31
                0x080060dc       0x28 stm32f4xx_ll_exti.c.o
 .text.LL_EXTI_EnableEvent_0_31
                0x08006104       0x24 stm32f4xx_ll_exti.c.o
 .text.LL_EXTI_DisableEvent_0_31
                0x08006128       0x28 stm32f4xx_ll_exti.c.o
 .text.LL_EXTI_EnableRisingTrig_0_31
                0x08006150       0x24 stm32f4xx_ll_exti.c.o
 .text.LL_EXTI_DisableRisingTrig_0_31
                0x08006174       0x28 stm32f4xx_ll_exti.c.o
 .text.LL_EXTI_EnableFallingTrig_0_31
                0x0800619c       0x24 stm32f4xx_ll_exti.c.o
 .text.LL_EXTI_DisableFallingTrig_0_31
                0x080061c0       0x28 stm32f4xx_ll_exti.c.o
 .text.LL_EXTI_Init
                0x080061e8       0xfe stm32f4xx_ll_exti.c.o
                0x080061e8                LL_EXTI_Init
 *fill*         0x080062e6        0x2 
 .text.HAL_RCC_GetHCLKFreq
                0x080062e8       0x18 stm32f4xx_hal_rcc.c.o
                0x080062e8                HAL_RCC_GetHCLKFreq
 .text.HAL_RCC_GetPCLK1Freq
                0x08006300       0x28 stm32f4xx_hal_rcc.c.o
                0x08006300                HAL_RCC_GetPCLK1Freq
 .text.HAL_RCC_GetClockConfig
                0x08006328       0x64 stm32f4xx_hal_rcc.c.o
                0x08006328                HAL_RCC_GetClockConfig
 .text.__NVIC_SetPriorityGrouping
                0x0800638c       0x48 stm32f4xx_hal_cortex.c.o
 .text.__NVIC_GetPriorityGrouping
                0x080063d4       0x1c stm32f4xx_hal_cortex.c.o
 .text.__NVIC_EnableIRQ
                0x080063f0       0x3c stm32f4xx_hal_cortex.c.o
 .text.__NVIC_SetPriority
                0x0800642c       0x54 stm32f4xx_hal_cortex.c.o
 .text.NVIC_EncodePriority
                0x08006480       0x66 stm32f4xx_hal_cortex.c.o
 .text.HAL_NVIC_SetPriorityGrouping
                0x080064e6       0x16 stm32f4xx_hal_cortex.c.o
                0x080064e6                HAL_NVIC_SetPriorityGrouping
 .text.HAL_NVIC_SetPriority
                0x080064fc       0x38 stm32f4xx_hal_cortex.c.o
                0x080064fc                HAL_NVIC_SetPriority
 .text.HAL_NVIC_EnableIRQ
                0x08006534       0x1c stm32f4xx_hal_cortex.c.o
                0x08006534                HAL_NVIC_EnableIRQ
 .text.HAL_Init
                0x08006550       0x44 stm32f4xx_hal.c.o
                0x08006550                HAL_Init
 .text.HAL_IncTick
                0x08006594       0x28 stm32f4xx_hal.c.o
                0x08006594                HAL_IncTick
 .text.HAL_GetTick
                0x080065bc       0x18 stm32f4xx_hal.c.o
                0x080065bc                HAL_GetTick
 .text.LL_USART_IsEnabled
                0x080065d4       0x28 stm32f4xx_ll_usart.c.o
 .text.LL_USART_SetStopBitsLength
                0x080065fc       0x26 stm32f4xx_ll_usart.c.o
 .text.LL_USART_SetHWFlowCtrl
                0x08006622       0x26 stm32f4xx_ll_usart.c.o
 .text.LL_USART_SetBaudRate
                0x08006648      0x45c stm32f4xx_ll_usart.c.o
 .text.LL_USART_Init
                0x08006aa4      0x100 stm32f4xx_ll_usart.c.o
                0x08006aa4                LL_USART_Init
 .text.SystemInit
                0x08006ba4       0x24 system_stm32f4xx.c.o
                0x08006ba4                SystemInit
 .text.Reset_Handler
                0x08006bc8       0x50 startup_stm32f446retx.s.o
                0x08006bc8                Reset_Handler
 .text.Default_Handler
                0x08006c18        0x2 startup_stm32f446retx.s.o
                0x08006c18                RTC_Alarm_IRQHandler
                0x08006c18                EXTI2_IRQHandler
                0x08006c18                TIM8_CC_IRQHandler
                0x08006c18                FMPI2C1_EV_IRQHandler
                0x08006c18                SPI4_IRQHandler
                0x08006c18                TIM1_CC_IRQHandler
                0x08006c18                DMA2_Stream5_IRQHandler
                0x08006c18                PVD_IRQHandler
                0x08006c18                SDIO_IRQHandler
                0x08006c18                TAMP_STAMP_IRQHandler
                0x08006c18                CAN2_RX1_IRQHandler
                0x08006c18                EXTI3_IRQHandler
                0x08006c18                TIM8_TRG_COM_TIM14_IRQHandler
                0x08006c18                TIM1_UP_TIM10_IRQHandler
                0x08006c18                TIM8_UP_TIM13_IRQHandler
                0x08006c18                I2C3_ER_IRQHandler
                0x08006c18                EXTI0_IRQHandler
                0x08006c18                I2C2_EV_IRQHandler
                0x08006c18                DMA1_Stream2_IRQHandler
                0x08006c18                CAN1_RX0_IRQHandler
                0x08006c18                FPU_IRQHandler
                0x08006c18                OTG_HS_WKUP_IRQHandler
                0x08006c18                CAN2_SCE_IRQHandler
                0x08006c18                DMA2_Stream2_IRQHandler
                0x08006c18                SPI1_IRQHandler
                0x08006c18                TIM6_DAC_IRQHandler
                0x08006c18                TIM1_BRK_TIM9_IRQHandler
                0x08006c18                DCMI_IRQHandler
                0x08006c18                CAN2_RX0_IRQHandler
                0x08006c18                DMA2_Stream3_IRQHandler
                0x08006c18                SAI2_IRQHandler
                0x08006c18                USART6_IRQHandler
                0x08006c18                USART3_IRQHandler
                0x08006c18                CAN1_RX1_IRQHandler
                0x08006c18                UART5_IRQHandler
                0x08006c18                DMA2_Stream0_IRQHandler
                0x08006c18                TIM4_IRQHandler
                0x08006c18                QUADSPI_IRQHandler
                0x08006c18                I2C1_EV_IRQHandler
                0x08006c18                DMA1_Stream6_IRQHandler
                0x08006c18                DMA1_Stream1_IRQHandler
                0x08006c18                UART4_IRQHandler
                0x08006c18                TIM3_IRQHandler
                0x08006c18                RCC_IRQHandler
                0x08006c18                TIM8_BRK_TIM12_IRQHandler
                0x08006c18                Default_Handler
                0x08006c18                CEC_IRQHandler
                0x08006c18                EXTI15_10_IRQHandler
                0x08006c18                ADC_IRQHandler
                0x08006c18                DMA1_Stream7_IRQHandler
                0x08006c18                TIM7_IRQHandler
                0x08006c18                CAN2_TX_IRQHandler
                0x08006c18                DMA2_Stream7_IRQHandler
                0x08006c18                I2C3_EV_IRQHandler
                0x08006c18                EXTI9_5_IRQHandler
                0x08006c18                RTC_WKUP_IRQHandler
                0x08006c18                SPDIF_RX_IRQHandler
                0x08006c18                SPI2_IRQHandler
                0x08006c18                OTG_HS_EP1_IN_IRQHandler
                0x08006c18                DMA1_Stream0_IRQHandler
                0x08006c18                CAN1_TX_IRQHandler
                0x08006c18                FMPI2C1_ER_IRQHandler
                0x08006c18                EXTI4_IRQHandler
                0x08006c18                OTG_HS_EP1_OUT_IRQHandler
                0x08006c18                WWDG_IRQHandler
                0x08006c18                TIM2_IRQHandler
                0x08006c18                OTG_FS_WKUP_IRQHandler
                0x08006c18                TIM1_TRG_COM_TIM11_IRQHandler
                0x08006c18                OTG_HS_IRQHandler
                0x08006c18                EXTI1_IRQHandler
                0x08006c18                I2C2_ER_IRQHandler
                0x08006c18                DMA2_Stream1_IRQHandler
                0x08006c18                CAN1_SCE_IRQHandler
                0x08006c18                FLASH_IRQHandler
                0x08006c18                DMA2_Stream4_IRQHandler
                0x08006c18                USART1_IRQHandler
                0x08006c18                OTG_FS_IRQHandler
                0x08006c18                SPI3_IRQHandler
                0x08006c18                DMA1_Stream4_IRQHandler
                0x08006c18                I2C1_ER_IRQHandler
                0x08006c18                FMC_IRQHandler
                0x08006c18                DMA2_Stream6_IRQHandler
                0x08006c18                SAI1_IRQHandler
                0x08006c18                DMA1_Stream3_IRQHandler
 .text.BMS_MCU_CODE_Init
                0x08006c1a       0x42 ../../../../slprj/ert/BMS_MCU_CODE/BMS_MCU_CODE_rtwlib.lib(BMS_MCU_CODE.c.o)
                0x08006c1a                BMS_MCU_CODE_Init
 *fill*         0x08006c5c        0x4 
 .text.BMS_MCU_CODE
                0x08006c60     0x1538 ../../../../slprj/ert/BMS_MCU_CODE/BMS_MCU_CODE_rtwlib.lib(BMS_MCU_CODE.c.o)
                0x08006c60                BMS_MCU_CODE
 .text.BMS_MCU_CODE_initialize
                0x08008198       0x1c ../../../../slprj/ert/BMS_MCU_CODE/BMS_MCU_CODE_rtwlib.lib(BMS_MCU_CODE.c.o)
                0x08008198                BMS_MCU_CODE_initialize
 .text.intrp2d_fu32fl_pw
                0x080081b4       0xc0 C:/Users/odona/OneDrive/Yara/Thesis/BMS_Thesis/slprj/ert/_sharedutils/rtwshared.lib(intrp2d_fu32fl_pw.c.o)
                0x080081b4                intrp2d_fu32fl_pw
 .text.look1_binlxpw
                0x08008274      0x1d2 C:/Users/odona/OneDrive/Yara/Thesis/BMS_Thesis/slprj/ert/_sharedutils/rtwshared.lib(look1_binlxpw.c.o)
                0x08008274                look1_binlxpw
 .text.maximum_TTkd84nS
                0x08008446       0xd8 C:/Users/odona/OneDrive/Yara/Thesis/BMS_Thesis/slprj/ert/_sharedutils/rtwshared.lib(maximum_TTkd84nS.c.o)
                0x08008446                maximum_TTkd84nS
 .text.minimum_ruU8vKTP
                0x0800851e       0xd8 C:/Users/odona/OneDrive/Yara/Thesis/BMS_Thesis/slprj/ert/_sharedutils/rtwshared.lib(minimum_ruU8vKTP.c.o)
                0x0800851e                minimum_ruU8vKTP
 .text.plook_u32ff_binx
                0x080085f6      0x116 C:/Users/odona/OneDrive/Yara/Thesis/BMS_Thesis/slprj/ert/_sharedutils/rtwshared.lib(plook_u32ff_binx.c.o)
                0x080085f6                plook_u32ff_binx
 .text.rtIsNaNF
                0x0800870c       0x2e C:/Users/odona/OneDrive/Yara/Thesis/BMS_Thesis/slprj/ert/_sharedutils/rtwshared.lib(rt_nonfinite.c.o)
                0x0800870c                rtIsNaNF
 .text.binsearch_u32f
                0x0800873a       0x64 C:/Users/odona/OneDrive/Yara/Thesis/BMS_Thesis/slprj/ert/_sharedutils/rtwshared.lib(binsearch_u32f.c.o)
                0x0800873a                binsearch_u32f
 *fill*         0x0800879e        0x2 
 .text.BMS_MCU_CODE_caRunTests
                0x080087a0       0x30 C:/Users/odona/OneDrive/Yara/Thesis/BMS_Thesis/slprj/ert/BMS_MCU_CODE/coderassumptions/lib/BMS_MCU_CODE_ca.lib(BMS_MCU_CODE_ca.c.o)
                0x080087a0                BMS_MCU_CODE_caRunTests
 .text.caVerifyChecks
                0x080087d0      0x30c C:/Users/odona/OneDrive/Yara/Thesis/BMS_Thesis/slprj/ert/BMS_MCU_CODE/coderassumptions/lib/BMS_MCU_CODE_ca.lib(coder_assumptions_hwimpl.c.o)
                0x080087d0                caVerifyChecks
 .text.caVerifyPortableWordSizes
                0x08008adc       0x58 C:/Users/odona/OneDrive/Yara/Thesis/BMS_Thesis/slprj/ert/BMS_MCU_CODE/coderassumptions/lib/BMS_MCU_CODE_ca.lib(coder_assumptions_hwimpl.c.o)
                0x08008adc                caVerifyPortableWordSizes
 .text.runMemoryChecks
                0x08008b34       0x54 C:/Users/odona/OneDrive/Yara/Thesis/BMS_Thesis/slprj/ert/BMS_MCU_CODE/coderassumptions/lib/BMS_MCU_CODE_ca.lib(coder_assumptions_hwimpl.c.o)
 .text.runTest  0x08008b88       0x42 C:/Users/odona/OneDrive/Yara/Thesis/BMS_Thesis/slprj/ert/BMS_MCU_CODE/coderassumptions/lib/BMS_MCU_CODE_ca.lib(coder_assumptions_hwimpl.c.o)
 .text.testPass
                0x08008bca       0x30 C:/Users/odona/OneDrive/Yara/Thesis/BMS_Thesis/slprj/ert/BMS_MCU_CODE/coderassumptions/lib/BMS_MCU_CODE_ca.lib(coder_assumptions_hwimpl.c.o)
 .text.testFail
                0x08008bfa       0x30 C:/Users/odona/OneDrive/Yara/Thesis/BMS_Thesis/slprj/ert/BMS_MCU_CODE/coderassumptions/lib/BMS_MCU_CODE_ca.lib(coder_assumptions_hwimpl.c.o)
 .text.testWarn
                0x08008c2a       0x30 C:/Users/odona/OneDrive/Yara/Thesis/BMS_Thesis/slprj/ert/BMS_MCU_CODE/coderassumptions/lib/BMS_MCU_CODE_ca.lib(coder_assumptions_hwimpl.c.o)
 .text.testSkip
                0x08008c5a       0x30 C:/Users/odona/OneDrive/Yara/Thesis/BMS_Thesis/slprj/ert/BMS_MCU_CODE/coderassumptions/lib/BMS_MCU_CODE_ca.lib(coder_assumptions_hwimpl.c.o)
 .text.testReview
                0x08008c8a       0x30 C:/Users/odona/OneDrive/Yara/Thesis/BMS_Thesis/slprj/ert/BMS_MCU_CODE/coderassumptions/lib/BMS_MCU_CODE_ca.lib(coder_assumptions_hwimpl.c.o)
 .text.numBits  0x08008cba       0x44 C:/Users/odona/OneDrive/Yara/Thesis/BMS_Thesis/slprj/ert/BMS_MCU_CODE/coderassumptions/lib/BMS_MCU_CODE_ca.lib(coder_assumptions_hwimpl.c.o)
 .text.getCPUInfo
                0x08008cfe      0x234 C:/Users/odona/OneDrive/Yara/Thesis/BMS_Thesis/slprj/ert/BMS_MCU_CODE/coderassumptions/lib/BMS_MCU_CODE_ca.lib(coder_assumptions_hwimpl.c.o)
 .text.getBitsPerMemUnit
                0x08008f32       0x20 C:/Users/odona/OneDrive/Yara/Thesis/BMS_Thesis/slprj/ert/BMS_MCU_CODE/coderassumptions/lib/BMS_MCU_CODE_ca.lib(coder_assumptions_hwimpl.c.o)
 *fill*         0x08008f52        0x2 
 .text.fmin     0x08008f54       0x50 C:/ProgramData/MATLAB/SupportPackages/R2025b/3P.instrset/gnuarm-armcortex.instrset/win/bin/../lib/gcc/arm-none-eabi/13.2.1/thumb/v7e-m+fp/hard\libm.a(libm_a-s_fmin.o)
                0x08008f54                fmin
 .text.__fpclassifyd
                0x08008fa4       0x5c C:/ProgramData/MATLAB/SupportPackages/R2025b/3P.instrset/gnuarm-armcortex.instrset/win/bin/../lib/gcc/arm-none-eabi/13.2.1/thumb/v7e-m+fp/hard\libm.a(libm_a-s_fpclassify.o)
                0x08008fa4                __fpclassifyd
 .text.fmaxf    0x08009000       0x3c C:/ProgramData/MATLAB/SupportPackages/R2025b/3P.instrset/gnuarm-armcortex.instrset/win/bin/../lib/gcc/arm-none-eabi/13.2.1/thumb/v7e-m+fp/hard\libm.a(libm_a-sf_fmax.o)
                0x08009000                fmaxf
 .text.fminf    0x0800903c       0x3c C:/ProgramData/MATLAB/SupportPackages/R2025b/3P.instrset/gnuarm-armcortex.instrset/win/bin/../lib/gcc/arm-none-eabi/13.2.1/thumb/v7e-m+fp/hard\libm.a(libm_a-sf_fmin.o)
                0x0800903c                fminf
 .text.__fpclassifyf
                0x08009078       0x38 C:/ProgramData/MATLAB/SupportPackages/R2025b/3P.instrset/gnuarm-armcortex.instrset/win/bin/../lib/gcc/arm-none-eabi/13.2.1/thumb/v7e-m+fp/hard\libm.a(libm_a-sf_fpclassify.o)
                0x08009078                __fpclassifyf
 .text.__udivmoddi4
                0x080090b0      0x2bc C:/ProgramData/MATLAB/SupportPackages/R2025b/3P.instrset/gnuarm-armcortex.instrset/win/bin/../lib/gcc/arm-none-eabi/13.2.1/thumb/v7e-m+fp/hard\libgcc.a(_udivmoddi4.o)
                0x080090b0                __udivmoddi4
 .text.memset   0x0800936c       0x10 C:/ProgramData/MATLAB/SupportPackages/R2025b/3P.instrset/gnuarm-armcortex.instrset/win/bin/../lib/gcc/arm-none-eabi/13.2.1/thumb/v7e-m+fp/hard\libg_nano.a(libc_a-memset.o)
                0x0800936c                memset
 .text.__libc_init_array
                0x0800937c       0x48 C:/ProgramData/MATLAB/SupportPackages/R2025b/3P.instrset/gnuarm-armcortex.instrset/win/bin/../lib/gcc/arm-none-eabi/13.2.1/thumb/v7e-m+fp/hard\libg_nano.a(libc_a-init.o)
                0x0800937c                __libc_init_array
 .text.memcpy   0x080093c4       0x1c C:/ProgramData/MATLAB/SupportPackages/R2025b/3P.instrset/gnuarm-armcortex.instrset/win/bin/../lib/gcc/arm-none-eabi/13.2.1/thumb/v7e-m+fp/hard\libg_nano.a(libc_a-memcpy-stub.o)
                0x080093c4                memcpy
 *(.glue_7)
 .glue_7        0x080093e0        0x0 linker stubs
 *(.glue_7t)
 .glue_7t       0x080093e0        0x0 linker stubs
 *(.eh_frame)
 .eh_frame      0x080093e0        0x0 C:/ProgramData/MATLAB/SupportPackages/R2025b/3P.instrset/gnuarm-armcortex.instrset/win/bin/../lib/gcc/arm-none-eabi/13.2.1/thumb/v7e-m+fp/hard/crtbegin.o
 *(.init)
 .init          0x080093e0        0x4 C:/ProgramData/MATLAB/SupportPackages/R2025b/3P.instrset/gnuarm-armcortex.instrset/win/bin/../lib/gcc/arm-none-eabi/13.2.1/thumb/v7e-m+fp/hard/crti.o
                0x080093e0                _init
 .init          0x080093e4        0x8 C:/ProgramData/MATLAB/SupportPackages/R2025b/3P.instrset/gnuarm-armcortex.instrset/win/bin/../lib/gcc/arm-none-eabi/13.2.1/thumb/v7e-m+fp/hard/crtn.o
 *(.fini)
 .fini          0x080093ec        0x4 C:/ProgramData/MATLAB/SupportPackages/R2025b/3P.instrset/gnuarm-armcortex.instrset/win/bin/../lib/gcc/arm-none-eabi/13.2.1/thumb/v7e-m+fp/hard/crti.o
                0x080093ec                _fini
 .fini          0x080093f0        0x8 C:/ProgramData/MATLAB/SupportPackages/R2025b/3P.instrset/gnuarm-armcortex.instrset/win/bin/../lib/gcc/arm-none-eabi/13.2.1/thumb/v7e-m+fp/hard/crtn.o
                0x080093f8                        . = ALIGN (0x4)
                0x080093f8                        _etext = .

.vfp11_veneer   0x080093f8        0x0
 .vfp11_veneer  0x080093f8        0x0 linker stubs

.v4_bx          0x080093f8        0x0
 .v4_bx         0x080093f8        0x0 linker stubs

.iplt           0x080093f8        0x0
 .iplt          0x080093f8        0x0 C:/ProgramData/MATLAB/SupportPackages/R2025b/3P.instrset/gnuarm-armcortex.instrset/win/bin/../lib/gcc/arm-none-eabi/13.2.1/thumb/v7e-m+fp/hard/crtbegin.o

.rodata         0x080093f8      0x250
                0x080093f8                        . = ALIGN (0x4)
 *(.rodata)
 .rodata        0x080093f8       0x21 C:/Users/odona/OneDrive/Yara/Thesis/BMS_Thesis/slprj/ert/BMS_MCU_CODE/coderassumptions/lib/BMS_MCU_CODE_ca.lib(BMS_MCU_CODE_ca.c.o)
 *(.rodata*)
 *fill*         0x08009419        0x3 
 .rodata.STREAM_OFFSET_TAB
                0x0800941c        0x8 stm_usart.c.o
 .rodata.STREAM_OFFSET_TAB
                0x08009424        0x8 main.c.o
 .rodata.AHBPrescTable
                0x0800942c       0x10 system_stm32f4xx.c.o
                0x0800942c                AHBPrescTable
 .rodata.APBPrescTable
                0x0800943c        0x8 system_stm32f4xx.c.o
                0x0800943c                APBPrescTable
 *fill*         0x08009444        0x4 
 .rodata.rtCP_pooled_LE05XBL4ZbcQ
                0x08009448       0x48 C:/Users/odona/OneDrive/Yara/Thesis/BMS_Thesis/slprj/ert/_sharedutils/rtwshared.lib(const_params.c.o)
                0x08009448                rtCP_pooled_LE05XBL4ZbcQ
 .rodata.rtCP_pooled_U8gMvKvP0Ntk
                0x08009490       0x2c C:/Users/odona/OneDrive/Yara/Thesis/BMS_Thesis/slprj/ert/_sharedutils/rtwshared.lib(const_params.c.o)
                0x08009490                rtCP_pooled_U8gMvKvP0Ntk
 .rodata.rtCP_pooled_Vp3dDlogzZPT
                0x080094bc       0xdc C:/Users/odona/OneDrive/Yara/Thesis/BMS_Thesis/slprj/ert/_sharedutils/rtwshared.lib(const_params.c.o)
                0x080094bc                rtCP_pooled_Vp3dDlogzZPT
 .rodata.rtCP_pooled_bfo3unVYSfcO
                0x08009598       0x14 C:/Users/odona/OneDrive/Yara/Thesis/BMS_Thesis/slprj/ert/_sharedutils/rtwshared.lib(const_params.c.o)
                0x08009598                rtCP_pooled_bfo3unVYSfcO
 *fill*         0x080095ac        0x4 
 .rodata.rtCP_pooled_s9pOilnAAikZ
                0x080095b0       0x48 C:/Users/odona/OneDrive/Yara/Thesis/BMS_Thesis/slprj/ert/_sharedutils/rtwshared.lib(const_params.c.o)
                0x080095b0                rtCP_pooled_s9pOilnAAikZ
 .rodata.CA_BMS_MCU_CODE_Exp
                0x080095f8       0x50 C:/Users/odona/OneDrive/Yara/Thesis/BMS_Thesis/slprj/ert/BMS_MCU_CODE/coderassumptions/lib/BMS_MCU_CODE_ca.lib(BMS_MCU_CODE_ca.c.o)
                0x080095f8                CA_BMS_MCU_CODE_Exp
                0x08009648                        . = ALIGN (0x4)

.ARM.extab      0x08009648        0x0
                0x08009648                        . = ALIGN (0x4)
 *(.ARM.extab* .gnu.linkonce.armextab.*)
                0x08009648                        . = ALIGN (0x4)

.ARM            0x08009648        0x8
                0x08009648                        . = ALIGN (0x4)
                0x08009648                        __exidx_start = .
 *(.ARM.exidx*)
 .ARM.exidx.text.__udivmoddi4
                0x08009648        0x8 C:/ProgramData/MATLAB/SupportPackages/R2025b/3P.instrset/gnuarm-armcortex.instrset/win/bin/../lib/gcc/arm-none-eabi/13.2.1/thumb/v7e-m+fp/hard\libgcc.a(_udivmoddi4.o)
                0x08009650                        __exidx_end = .
                0x08009650                        . = ALIGN (0x4)

.preinit_array  0x08009650        0x0
                0x08009650                        . = ALIGN (0x4)
                0x08009650                        PROVIDE (__preinit_array_start = .)
 *(.preinit_array*)
                0x08009650                        PROVIDE (__preinit_array_end = .)
                0x08009650                        . = ALIGN (0x4)

.init_array     0x08009650        0x4
                0x08009650                        . = ALIGN (0x4)
                0x08009650                        PROVIDE (__init_array_start = .)
 *(SORT_BY_NAME(.init_array.*))
 *(.init_array*)
 .init_array    0x08009650        0x4 C:/ProgramData/MATLAB/SupportPackages/R2025b/3P.instrset/gnuarm-armcortex.instrset/win/bin/../lib/gcc/arm-none-eabi/13.2.1/thumb/v7e-m+fp/hard/crtbegin.o
                0x08009654                        PROVIDE (__init_array_end = .)
                0x08009654                        . = ALIGN (0x4)

.fini_array     0x08009654        0x4
                0x08009654                        . = ALIGN (0x4)
                [!provide]                        PROVIDE (__fini_array_start = .)
 *(SORT_BY_NAME(.fini_array.*))
 *(.fini_array*)
 .fini_array    0x08009654        0x4 C:/ProgramData/MATLAB/SupportPackages/R2025b/3P.instrset/gnuarm-armcortex.instrset/win/bin/../lib/gcc/arm-none-eabi/13.2.1/thumb/v7e-m+fp/hard/crtbegin.o
                [!provide]                        PROVIDE (__fini_array_end = .)
                0x08009658                        . = ALIGN (0x4)
                0x08009658                        _sidata = LOADADDR (.data)

.rel.dyn        0x08009658        0x0
 .rel.iplt      0x08009658        0x0 C:/ProgramData/MATLAB/SupportPackages/R2025b/3P.instrset/gnuarm-armcortex.instrset/win/bin/../lib/gcc/arm-none-eabi/13.2.1/thumb/v7e-m+fp/hard/crtbegin.o

.data           0x20000000       0xc0 load address 0x08009658
                0x20000000                        . = ALIGN (0x4)
                0x20000000                        _sdata = .
 *(.data)
 *(.data*)
 .data.processMsgSuccess
                0x20000000        0x4 xil_interface_lib.c.o
 .data.rt_errorStatus
                0x20000004        0x4 xil_interface.c.o
 .data.RTModel_ptr
                0x20000008        0x4 xil_interface.c.o
                0x20000008                RTModel_ptr
 .data.writeBufferSize
                0x2000000c        0x4 coder_assumptions_data_stream.c.o
                0x2000000c                writeBufferSize
 .data.uartObj  0x20000010       0x40 rtiostream_serial.c.o
                0x20000010                uartObj
 .data.uwTickPrio
                0x20000050        0x4 stm32f4xx_hal.c.o
                0x20000050                uwTickPrio
 .data.uwTickFreq
                0x20000054        0x1 stm32f4xx_hal.c.o
                0x20000054                uwTickFreq
 *fill*         0x20000055        0x3 
 .data.SystemCoreClock
                0x20000058        0x4 system_stm32f4xx.c.o
                0x20000058                SystemCoreClock
 .data.CA_BMS_MCU_CODE_Act
                0x2000005c       0x50 C:/Users/odona/OneDrive/Yara/Thesis/BMS_Thesis/slprj/ert/BMS_MCU_CODE/coderassumptions/lib/BMS_MCU_CODE_ca.lib(BMS_MCU_CODE_ca.c.o)
                0x2000005c                CA_BMS_MCU_CODE_Act
 *fill*         0x200000ac        0x4 
 .data.realmin  0x200000b0        0x8 C:/Users/odona/OneDrive/Yara/Thesis/BMS_Thesis/slprj/ert/BMS_MCU_CODE/coderassumptions/lib/BMS_MCU_CODE_ca.lib(coder_assumptions_hwimpl.c.o)
 .data.denormalAsZero
                0x200000b8        0x8 C:/Users/odona/OneDrive/Yara/Thesis/BMS_Thesis/slprj/ert/BMS_MCU_CODE/coderassumptions/lib/BMS_MCU_CODE_ca.lib(coder_assumptions_flt.c.o)
                0x200000b8                denormalAsZero
 *(.RamFunc)
 *(.RamFunc*)
                0x200000c0                        . = ALIGN (0x4)
                0x200000c0                        _edata = .

.tm_clone_table
                0x200000c0        0x0 load address 0x08009718
 .tm_clone_table
                0x200000c0        0x0 C:/ProgramData/MATLAB/SupportPackages/R2025b/3P.instrset/gnuarm-armcortex.instrset/win/bin/../lib/gcc/arm-none-eabi/13.2.1/thumb/v7e-m+fp/hard/crtbegin.o
 .tm_clone_table
                0x200000c0        0x0 C:/ProgramData/MATLAB/SupportPackages/R2025b/3P.instrset/gnuarm-armcortex.instrset/win/bin/../lib/gcc/arm-none-eabi/13.2.1/thumb/v7e-m+fp/hard/crtend.o

.igot.plt       0x200000c0        0x0 load address 0x08009718
 .igot.plt      0x200000c0        0x0 C:/ProgramData/MATLAB/SupportPackages/R2025b/3P.instrset/gnuarm-armcortex.instrset/win/bin/../lib/gcc/arm-none-eabi/13.2.1/thumb/v7e-m+fp/hard/crtbegin.o
                0x200000c0                        . = ALIGN (0x4)

.bss            0x200000c0      0xb34 load address 0x08009718
                0x200000c0                        _sbss = .
                0x200000c0                        __bss_start__ = _sbss
 *(.bss)
 *(.bss*)
 .bss.completed.1
                0x200000c0        0x1 C:/ProgramData/MATLAB/SupportPackages/R2025b/3P.instrset/gnuarm-armcortex.instrset/win/bin/../lib/gcc/arm-none-eabi/13.2.1/thumb/v7e-m+fp/hard/crtbegin.o
 *fill*         0x200000c1        0x3 
 .bss.object.0  0x200000c4       0x18 C:/ProgramData/MATLAB/SupportPackages/R2025b/3P.instrset/gnuarm-armcortex.instrset/win/bin/../lib/gcc/arm-none-eabi/13.2.1/thumb/v7e-m+fp/hard/crtbegin.o
 .bss.xilIODataPtr
                0x200000dc        0x4 xil_interface_lib.c.o
 .bss.isShutdownCommand
                0x200000e0        0x4 xil_interface_lib.c.o
 .bss.cc        0x200000e4        0xc xil_interface_lib.c.o
 .bss.uDataAddress.1
                0x200000f0        0x4 xil_interface_lib.c.o
 .bss.uDataLength.0
                0x200000f4        0x4 xil_interface_lib.c.o
 .bss.pBuffer   0x200000f8        0x4 xil_data_stream.c.o
 .bss.xilWriteDataPtr
                0x200000fc        0x4 xil_data_stream.c.o
 .bss.xilWriteDataAvail
                0x20000100        0x2 xil_data_stream.c.o
 *fill*         0x20000102        0x2 
 .bss.commandResponseType
                0x20000104        0x4 xil_data_stream.c.o
 .bss.currentBufSize.1
                0x20000108        0x2 xil_data_stream.c.o
 *fill*         0x2000010a        0x2 
 .bss.currentBufferPosition.0
                0x2000010c        0x4 xil_data_stream.c.o
 .bss.i_From_Plant_Vmod
                0x20000110       0x30 xil_interface.c.o
                0x20000110                i_From_Plant_Vmod
 .bss.i_From_Plant_Tmod
                0x20000140       0x30 xil_interface.c.o
                0x20000140                i_From_Plant_Tmod
 .bss.i_From_Plant_Pack_Current
                0x20000170        0x4 xil_interface.c.o
                0x20000170                i_From_Plant_Pack_Current
 .bss.i_From_Plant_SOCmod
                0x20000174       0x30 xil_interface.c.o
                0x20000174                i_From_Plant_SOCmod
 .bss.i_From_Plant_V_Batt_Monitor
                0x200001a4        0x4 xil_interface.c.o
                0x200001a4                i_From_Plant_V_Batt_Monitor
 .bss.i_State_Required
                0x200001a8        0x1 xil_interface.c.o
                0x200001a8                i_State_Required
 .bss.o_Fault_Out_VoltSensor
                0x200001a9        0x1 xil_interface.c.o
                0x200001a9                o_Fault_Out_VoltSensor
 .bss.o_Fault_Out_UV
                0x200001aa        0x1 xil_interface.c.o
                0x200001aa                o_Fault_Out_UV
 .bss.o_Fault_Out_OT
                0x200001ab        0x1 xil_interface.c.o
                0x200001ab                o_Fault_Out_OT
 .bss.o_Fault_Out_UT
                0x200001ac        0x1 xil_interface.c.o
                0x200001ac                o_Fault_Out_UT
 .bss.o_Fault_Out_OC
                0x200001ad        0x1 xil_interface.c.o
                0x200001ad                o_Fault_Out_OC
 .bss.o_Fault_Out_OV
                0x200001ae        0x1 xil_interface.c.o
                0x200001ae                o_Fault_Out_OV
 *fill*         0x200001af        0x1 
 .bss.o_SOC     0x200001b0       0x30 xil_interface.c.o
                0x200001b0                o_SOC
 .bss.o_V_Batt_Monitor
                0x200001e0        0x4 xil_interface.c.o
                0x200001e0                o_V_Batt_Monitor
 .bss.o_Ipack   0x200001e4        0x4 xil_interface.c.o
                0x200001e4                o_Ipack
 .bss.o_Temp    0x200001e8       0x30 xil_interface.c.o
                0x200001e8                o_Temp
 .bss.o_V_Cell  0x20000218       0x30 xil_interface.c.o
                0x20000218                o_V_Cell
 .bss.o_From_BMS_BMS_State_Out
                0x20000248        0x1 xil_interface.c.o
                0x20000248                o_From_BMS_BMS_State_Out
 *fill*         0x20000249        0x3 
 .bss.o_From_BMS_Current_Limits_Dischar
                0x2000024c        0x4 xil_interface.c.o
                0x2000024c                o_From_BMS_Current_Limits_Dischar
 .bss.o_From_BMS_Current_Limits_Charge_
                0x20000250        0x4 xil_interface.c.o
                0x20000250                o_From_BMS_Current_Limits_Charge_
 .bss.o_o_From_BMS_Bal_Cmd
                0x20000254        0xc xil_interface.c.o
                0x20000254                o_o_From_BMS_Bal_Cmd
 .bss.o_o_Fault_Level_p
                0x20000260       0x80 xil_interface.c.o
                0x20000260                o_o_Fault_Level_p
 .bss.rt_errorStatus_tgt_var
                0x200002e0        0x4 xil_interface.c.o
 *fill*         0x200002e4        0x4 
 .bss.BMS_MCU_CODE_MdlrefDW
                0x200002e8      0x120 xil_interface.c.o
                0x200002e8                BMS_MCU_CODE_MdlrefDW
 .bss.input_6_cData_1_nonaddr_io
                0x20000408        0x4 xil_interface.c.o
 .bss.output_12_cData_1_nonaddr_io
                0x2000040c        0x4 xil_interface.c.o
 .bss.xil_fcnid0_task1_output_u
                0x20000410       0x38 xil_interface.c.o
 .bss.xil_fcnid0_task1_y
                0x20000448       0x88 xil_interface.c.o
 .bss.xil_fcnid0_init_y
                0x200004d0       0x88 xil_interface.c.o
 .bss.xil_fcnid0_system_initialize_y
                0x20000558       0x88 xil_interface.c.o
 .bss.initComplete.3
                0x200005e0        0x4 xil_interface.c.o
 .bss.initComplete.2
                0x200005e4        0x4 xil_interface.c.o
 .bss.initComplete.1
                0x200005e8        0x4 xil_interface.c.o
 .bss.initComplete.0
                0x200005ec        0x4 xil_interface.c.o
 .bss.streamID  0x200005f0        0x4 xilcomms_rtiostream.c.o
 .bss.xilCommsBuffer
                0x200005f4       0x85 xilcomms_rtiostream.c.o
 *fill*         0x20000679        0x3 
 .bss.xilWriteBuffer
                0x2000067c       0x86 xil_rtiostream.c.o
 .bss.pwsEnabled
                0x20000702        0x1 coder_assumptions_app.c.o
 *fill*         0x20000703        0x1 
 .bss.pBuffer   0x20000704        0x4 coder_assumptions_data_stream.c.o
 .bss.coderAssumptionsWriteDataPtr
                0x20000708        0x4 coder_assumptions_data_stream.c.o
 .bss.coderAssumptionsWriteDataAvail
                0x2000070c        0x2 coder_assumptions_data_stream.c.o
                0x2000070c                coderAssumptionsWriteDataAvail
 *fill*         0x2000070e        0x2 
 .bss.coderAssumpWriteBuffer
                0x20000710       0x20 coder_assumptions_rtiostream.c.o
 .bss.mw_ext_h  0x20000730        0x4 rtiostream_serial.c.o
                0x20000730                mw_ext_h
 .bss.UARTRxBuffer
                0x20000734        0x4 rtiostream_serial.c.o
                0x20000734                UARTRxBuffer
 .bss.mw_usart2
                0x20000738       0x40 stm_usart.c.o
                0x20000738                mw_usart2
 .bss.USART2ReceiveBuffer
                0x20000778      0x400 stm_usart.c.o
                0x20000778                USART2ReceiveBuffer
 .bss.htim5     0x20000b78       0x48 stm32f4xx_hal_timebase_tim.c.o
                0x20000b78                htim5
 .bss.uwTick    0x20000bc0        0x4 stm32f4xx_hal.c.o
                0x20000bc0                uwTick
 .bss.CA_BMS_MCU_CODE_Res
                0x20000bc4       0x28 C:/Users/odona/OneDrive/Yara/Thesis/BMS_Thesis/slprj/ert/BMS_MCU_CODE/coderassumptions/lib/BMS_MCU_CODE_ca.lib(BMS_MCU_CODE_ca.c.o)
                0x20000bc4                CA_BMS_MCU_CODE_Res
 .bss.CA_BMS_MCU_CODE_PWSRes
                0x20000bec        0x2 C:/Users/odona/OneDrive/Yara/Thesis/BMS_Thesis/slprj/ert/BMS_MCU_CODE/coderassumptions/lib/BMS_MCU_CODE_ca.lib(BMS_MCU_CODE_ca.c.o)
                0x20000bec                CA_BMS_MCU_CODE_PWSRes
 *fill*         0x20000bee        0x2 
 .bss.aGlobalInt
                0x20000bf0        0x4 C:/Users/odona/OneDrive/Yara/Thesis/BMS_Thesis/slprj/ert/BMS_MCU_CODE/coderassumptions/lib/BMS_MCU_CODE_ca.lib(coder_assumptions_hwimpl.c.o)
                0x20000bf0                aGlobalInt
 *(COMMON)
                0x20000bf4                        . = ALIGN (0x4)
                0x20000bf4                        _ebss = .
                0x20000bf4                        __bss_end__ = _ebss

._user_heap_stack
                0x20000bf4      0x604 load address 0x08009718
                0x20000bf8                        . = ALIGN (0x8)
 *fill*         0x20000bf4        0x4 
                [!provide]                        PROVIDE (end = .)
                0x20000bf8                        PROVIDE (_end = .)
                0x20000df8                        . = (. + _Min_Heap_Size)
 *fill*         0x20000bf8      0x200 
                0x200011f8                        . = (. + _Min_Stack_Size)
 *fill*         0x20000df8      0x400 
                0x200011f8                        . = ALIGN (0x8)

/DISCARD/
 libc.a(*)
 libm.a(*)
 libgcc.a(*)

.ARM.attributes
                0x00000000       0x30
 *(.ARM.attributes)
 .ARM.attributes
                0x00000000       0x22 C:/ProgramData/MATLAB/SupportPackages/R2025b/3P.instrset/gnuarm-armcortex.instrset/win/bin/../lib/gcc/arm-none-eabi/13.2.1/thumb/v7e-m+fp/hard/crti.o
 .ARM.attributes
                0x00000022       0x34 C:/ProgramData/MATLAB/SupportPackages/R2025b/3P.instrset/gnuarm-armcortex.instrset/win/bin/../lib/gcc/arm-none-eabi/13.2.1/thumb/v7e-m+fp/hard/crtbegin.o
 .ARM.attributes
                0x00000056       0x34 xil_interface_lib.c.o
 .ARM.attributes
                0x0000008a       0x34 xil_data_stream.c.o
 .ARM.attributes
                0x000000be       0x34 xil_services.c.o
 .ARM.attributes
                0x000000f2       0x34 xil_interface.c.o
 .ARM.attributes
                0x00000126       0x34 xilcomms_rtiostream.c.o
 .ARM.attributes
                0x0000015a       0x34 xil_rtiostream.c.o
 .ARM.attributes
                0x0000018e       0x34 rtiostream_utils.c.o
 .ARM.attributes
                0x000001c2       0x34 coder_assumptions_app.c.o
 .ARM.attributes
                0x000001f6       0x34 coder_assumptions_data_stream.c.o
 .ARM.attributes
                0x0000022a       0x34 coder_assumptions_rtiostream.c.o
 .ARM.attributes
                0x0000025e       0x34 pil_main.c.o
 .ARM.attributes
                0x00000292       0x34 rtiostream_serial.c.o
 .ARM.attributes
                0x000002c6       0x34 stm_usart.c.o
 .ARM.attributes
                0x000002fa       0x34 platform_timer.c.o
 .ARM.attributes
                0x0000032e       0x34 main.c.o
 .ARM.attributes
                0x00000362       0x34 stm32f4xx_it.c.o
 .ARM.attributes
                0x00000396       0x34 stm32f4xx_hal_msp.c.o
 .ARM.attributes
                0x000003ca       0x34 stm32f4xx_hal_timebase_tim.c.o
 .ARM.attributes
                0x000003fe       0x34 stm32f4xx_hal_tim.c.o
 .ARM.attributes
                0x00000432       0x34 stm32f4xx_hal_tim_ex.c.o
 .ARM.attributes
                0x00000466       0x34 stm32f4xx_ll_gpio.c.o
 .ARM.attributes
                0x0000049a       0x34 stm32f4xx_ll_spi.c.o
 .ARM.attributes
                0x000004ce       0x34 stm32f4xx_ll_rcc.c.o
 .ARM.attributes
                0x00000502       0x34 stm32f4xx_ll_utils.c.o
 .ARM.attributes
                0x00000536       0x34 stm32f4xx_ll_exti.c.o
 .ARM.attributes
                0x0000056a       0x34 stm32f4xx_hal_rcc.c.o
 .ARM.attributes
                0x0000059e       0x34 stm32f4xx_hal_cortex.c.o
 .ARM.attributes
                0x000005d2       0x34 stm32f4xx_hal.c.o
 .ARM.attributes
                0x00000606       0x34 stm32f4xx_ll_usart.c.o
 .ARM.attributes
                0x0000063a       0x34 system_stm32f4xx.c.o
 .ARM.attributes
                0x0000066e       0x21 startup_stm32f446retx.s.o
 .ARM.attributes
                0x0000068f       0x34 ../../../../slprj/ert/BMS_MCU_CODE/BMS_MCU_CODE_rtwlib.lib(BMS_MCU_CODE.c.o)
 .ARM.attributes
                0x000006c3       0x34 C:/Users/odona/OneDrive/Yara/Thesis/BMS_Thesis/slprj/ert/_sharedutils/rtwshared.lib(const_params.c.o)
 .ARM.attributes
                0x000006f7       0x34 C:/Users/odona/OneDrive/Yara/Thesis/BMS_Thesis/slprj/ert/_sharedutils/rtwshared.lib(intrp2d_fu32fl_pw.c.o)
 .ARM.attributes
                0x0000072b       0x34 C:/Users/odona/OneDrive/Yara/Thesis/BMS_Thesis/slprj/ert/_sharedutils/rtwshared.lib(look1_binlxpw.c.o)
 .ARM.attributes
                0x0000075f       0x34 C:/Users/odona/OneDrive/Yara/Thesis/BMS_Thesis/slprj/ert/_sharedutils/rtwshared.lib(maximum_TTkd84nS.c.o)
 .ARM.attributes
                0x00000793       0x34 C:/Users/odona/OneDrive/Yara/Thesis/BMS_Thesis/slprj/ert/_sharedutils/rtwshared.lib(minimum_ruU8vKTP.c.o)
 .ARM.attributes
                0x000007c7       0x34 C:/Users/odona/OneDrive/Yara/Thesis/BMS_Thesis/slprj/ert/_sharedutils/rtwshared.lib(plook_u32ff_binx.c.o)
 .ARM.attributes
                0x000007fb       0x34 C:/Users/odona/OneDrive/Yara/Thesis/BMS_Thesis/slprj/ert/_sharedutils/rtwshared.lib(rt_nonfinite.c.o)
 .ARM.attributes
                0x0000082f       0x34 C:/Users/odona/OneDrive/Yara/Thesis/BMS_Thesis/slprj/ert/_sharedutils/rtwshared.lib(binsearch_u32f.c.o)
 .ARM.attributes
                0x00000863       0x34 C:/Users/odona/OneDrive/Yara/Thesis/BMS_Thesis/slprj/ert/BMS_MCU_CODE/coderassumptions/lib/BMS_MCU_CODE_ca.lib(BMS_MCU_CODE_ca.c.o)
 .ARM.attributes
                0x00000897       0x34 C:/Users/odona/OneDrive/Yara/Thesis/BMS_Thesis/slprj/ert/BMS_MCU_CODE/coderassumptions/lib/BMS_MCU_CODE_ca.lib(coder_assumptions_hwimpl.c.o)
 .ARM.attributes
                0x000008cb       0x34 C:/Users/odona/OneDrive/Yara/Thesis/BMS_Thesis/slprj/ert/BMS_MCU_CODE/coderassumptions/lib/BMS_MCU_CODE_ca.lib(coder_assumptions_flt.c.o)
 .ARM.attributes
                0x000008ff       0x34 C:/ProgramData/MATLAB/SupportPackages/R2025b/3P.instrset/gnuarm-armcortex.instrset/win/bin/../lib/gcc/arm-none-eabi/13.2.1/thumb/v7e-m+fp/hard\libm.a(libm_a-s_fmin.o)
 .ARM.attributes
                0x00000933       0x34 C:/ProgramData/MATLAB/SupportPackages/R2025b/3P.instrset/gnuarm-armcortex.instrset/win/bin/../lib/gcc/arm-none-eabi/13.2.1/thumb/v7e-m+fp/hard\libm.a(libm_a-s_fpclassify.o)
 .ARM.attributes
                0x00000967       0x34 C:/ProgramData/MATLAB/SupportPackages/R2025b/3P.instrset/gnuarm-armcortex.instrset/win/bin/../lib/gcc/arm-none-eabi/13.2.1/thumb/v7e-m+fp/hard\libm.a(libm_a-sf_fmax.o)
 .ARM.attributes
                0x0000099b       0x34 C:/ProgramData/MATLAB/SupportPackages/R2025b/3P.instrset/gnuarm-armcortex.instrset/win/bin/../lib/gcc/arm-none-eabi/13.2.1/thumb/v7e-m+fp/hard\libm.a(libm_a-sf_fmin.o)
 .ARM.attributes
                0x000009cf       0x34 C:/ProgramData/MATLAB/SupportPackages/R2025b/3P.instrset/gnuarm-armcortex.instrset/win/bin/../lib/gcc/arm-none-eabi/13.2.1/thumb/v7e-m+fp/hard\libm.a(libm_a-sf_fpclassify.o)
 .ARM.attributes
                0x00000a03       0x22 C:/ProgramData/MATLAB/SupportPackages/R2025b/3P.instrset/gnuarm-armcortex.instrset/win/bin/../lib/gcc/arm-none-eabi/13.2.1/thumb/v7e-m+fp/hard\libgcc.a(_arm_addsubdf3.o)
 .ARM.attributes
                0x00000a25       0x22 C:/ProgramData/MATLAB/SupportPackages/R2025b/3P.instrset/gnuarm-armcortex.instrset/win/bin/../lib/gcc/arm-none-eabi/13.2.1/thumb/v7e-m+fp/hard\libgcc.a(_arm_muldivdf3.o)
 .ARM.attributes
                0x00000a47       0x22 C:/ProgramData/MATLAB/SupportPackages/R2025b/3P.instrset/gnuarm-armcortex.instrset/win/bin/../lib/gcc/arm-none-eabi/13.2.1/thumb/v7e-m+fp/hard\libgcc.a(_arm_cmpdf2.o)
 .ARM.attributes
                0x00000a69       0x22 C:/ProgramData/MATLAB/SupportPackages/R2025b/3P.instrset/gnuarm-armcortex.instrset/win/bin/../lib/gcc/arm-none-eabi/13.2.1/thumb/v7e-m+fp/hard\libgcc.a(_arm_truncdfsf2.o)
 .ARM.attributes
                0x00000a8b       0x22 C:/ProgramData/MATLAB/SupportPackages/R2025b/3P.instrset/gnuarm-armcortex.instrset/win/bin/../lib/gcc/arm-none-eabi/13.2.1/thumb/v7e-m+fp/hard\libgcc.a(_aeabi_uldivmod.o)
 .ARM.attributes
                0x00000aad       0x34 C:/ProgramData/MATLAB/SupportPackages/R2025b/3P.instrset/gnuarm-armcortex.instrset/win/bin/../lib/gcc/arm-none-eabi/13.2.1/thumb/v7e-m+fp/hard\libgcc.a(_udivmoddi4.o)
 .ARM.attributes
                0x00000ae1       0x22 C:/ProgramData/MATLAB/SupportPackages/R2025b/3P.instrset/gnuarm-armcortex.instrset/win/bin/../lib/gcc/arm-none-eabi/13.2.1/thumb/v7e-m+fp/hard\libgcc.a(_dvmd_tls.o)
 .ARM.attributes
                0x00000b03       0x34 C:/ProgramData/MATLAB/SupportPackages/R2025b/3P.instrset/gnuarm-armcortex.instrset/win/bin/../lib/gcc/arm-none-eabi/13.2.1/thumb/v7e-m+fp/hard\libg_nano.a(libc_a-memset.o)
 .ARM.attributes
                0x00000b37       0x34 C:/ProgramData/MATLAB/SupportPackages/R2025b/3P.instrset/gnuarm-armcortex.instrset/win/bin/../lib/gcc/arm-none-eabi/13.2.1/thumb/v7e-m+fp/hard\libg_nano.a(libc_a-init.o)
 .ARM.attributes
                0x00000b6b       0x34 C:/ProgramData/MATLAB/SupportPackages/R2025b/3P.instrset/gnuarm-armcortex.instrset/win/bin/../lib/gcc/arm-none-eabi/13.2.1/thumb/v7e-m+fp/hard\libg_nano.a(libc_a-memcpy-stub.o)
 .ARM.attributes
                0x00000b9f       0x34 C:/ProgramData/MATLAB/SupportPackages/R2025b/3P.instrset/gnuarm-armcortex.instrset/win/bin/../lib/gcc/arm-none-eabi/13.2.1/thumb/v7e-m+fp/hard/crtend.o
 .ARM.attributes
                0x00000bd3       0x22 C:/ProgramData/MATLAB/SupportPackages/R2025b/3P.instrset/gnuarm-armcortex.instrset/win/bin/../lib/gcc/arm-none-eabi/13.2.1/thumb/v7e-m+fp/hard/crtn.o
OUTPUT(./BMS_MCU_CODE.elf elf32-littlearm)
LOAD linker stubs
LOAD C:/ProgramData/MATLAB/SupportPackages/R2025b/3P.instrset/gnuarm-armcortex.instrset/win/bin/../lib/gcc/arm-none-eabi/13.2.1/thumb/v7e-m+fp/hard\libc.a
LOAD C:/ProgramData/MATLAB/SupportPackages/R2025b/3P.instrset/gnuarm-armcortex.instrset/win/bin/../lib/gcc/arm-none-eabi/13.2.1/thumb/v7e-m+fp/hard\libm.a
LOAD C:/ProgramData/MATLAB/SupportPackages/R2025b/3P.instrset/gnuarm-armcortex.instrset/win/bin/../lib/gcc/arm-none-eabi/13.2.1/thumb/v7e-m+fp/hard\libgcc.a

.debug_info     0x00000000    0x14b2e
 .debug_info    0x00000000      0x921 xil_interface_lib.c.o
 .debug_info    0x00000921      0x43e xil_data_stream.c.o
 .debug_info    0x00000d5f      0x2c3 xil_services.c.o
 .debug_info    0x00001022     0x1485 xil_interface.c.o
 .debug_info    0x000024a7      0x2ff xilcomms_rtiostream.c.o
 .debug_info    0x000027a6      0x1ea xil_rtiostream.c.o
 .debug_info    0x00002990      0x235 rtiostream_utils.c.o
 .debug_info    0x00002bc5      0x76b coder_assumptions_app.c.o
 .debug_info    0x00003330      0x2d0 coder_assumptions_data_stream.c.o
 .debug_info    0x00003600      0x1d9 coder_assumptions_rtiostream.c.o
 .debug_info    0x000037d9      0x238 pil_main.c.o
 .debug_info    0x00003a11      0x5a5 rtiostream_serial.c.o
 .debug_info    0x00003fb6     0x1f70 stm_usart.c.o
 .debug_info    0x00005f26      0x2f3 platform_timer.c.o
 .debug_info    0x00006219     0x1e40 main.c.o
 .debug_info    0x00008059      0x735 stm32f4xx_it.c.o
 .debug_info    0x0000878e      0x2f0 stm32f4xx_hal_msp.c.o
 .debug_info    0x00008a7e      0xc40 stm32f4xx_hal_timebase_tim.c.o
 .debug_info    0x000096be     0x2999 stm32f4xx_hal_tim.c.o
 .debug_info    0x0000c057     0x14d7 stm32f4xx_hal_tim_ex.c.o
 .debug_info    0x0000d52e      0x953 stm32f4xx_ll_gpio.c.o
 .debug_info    0x0000de81      0x759 stm32f4xx_ll_spi.c.o
 .debug_info    0x0000e5da      0xbf5 stm32f4xx_ll_rcc.c.o
 .debug_info    0x0000f1cf      0x946 stm32f4xx_ll_utils.c.o
 .debug_info    0x0000fb15      0x333 stm32f4xx_ll_exti.c.o
 .debug_info    0x0000fe48      0x8e9 stm32f4xx_hal_rcc.c.o
 .debug_info    0x00010731      0xd71 stm32f4xx_hal_cortex.c.o
 .debug_info    0x000114a2      0x996 stm32f4xx_hal.c.o
 .debug_info    0x00011e38      0x71e stm32f4xx_ll_usart.c.o
 .debug_info    0x00012556      0x546 system_stm32f4xx.c.o
 .debug_info    0x00012a9c       0x30 startup_stm32f446retx.s.o
 .debug_info    0x00012acc      0x91a ../../../../slprj/ert/BMS_MCU_CODE/BMS_MCU_CODE_rtwlib.lib(BMS_MCU_CODE.c.o)
 .debug_info    0x000133e6      0x15f C:/Users/odona/OneDrive/Yara/Thesis/BMS_Thesis/slprj/ert/_sharedutils/rtwshared.lib(const_params.c.o)
 .debug_info    0x00013545      0x11f C:/Users/odona/OneDrive/Yara/Thesis/BMS_Thesis/slprj/ert/_sharedutils/rtwshared.lib(intrp2d_fu32fl_pw.c.o)
 .debug_info    0x00013664      0x13d C:/Users/odona/OneDrive/Yara/Thesis/BMS_Thesis/slprj/ert/_sharedutils/rtwshared.lib(look1_binlxpw.c.o)
 .debug_info    0x000137a1      0x141 C:/Users/odona/OneDrive/Yara/Thesis/BMS_Thesis/slprj/ert/_sharedutils/rtwshared.lib(maximum_TTkd84nS.c.o)
 .debug_info    0x000138e2      0x141 C:/Users/odona/OneDrive/Yara/Thesis/BMS_Thesis/slprj/ert/_sharedutils/rtwshared.lib(minimum_ruU8vKTP.c.o)
 .debug_info    0x00013a23      0x122 C:/Users/odona/OneDrive/Yara/Thesis/BMS_Thesis/slprj/ert/_sharedutils/rtwshared.lib(plook_u32ff_binx.c.o)
 .debug_info    0x00013b45      0x1d6 C:/Users/odona/OneDrive/Yara/Thesis/BMS_Thesis/slprj/ert/_sharedutils/rtwshared.lib(rt_nonfinite.c.o)
 .debug_info    0x00013d1b      0x111 C:/Users/odona/OneDrive/Yara/Thesis/BMS_Thesis/slprj/ert/_sharedutils/rtwshared.lib(binsearch_u32f.c.o)
 .debug_info    0x00013e2c      0x49f C:/Users/odona/OneDrive/Yara/Thesis/BMS_Thesis/slprj/ert/BMS_MCU_CODE/coderassumptions/lib/BMS_MCU_CODE_ca.lib(BMS_MCU_CODE_ca.c.o)
 .debug_info    0x000142cb      0x816 C:/Users/odona/OneDrive/Yara/Thesis/BMS_Thesis/slprj/ert/BMS_MCU_CODE/coderassumptions/lib/BMS_MCU_CODE_ca.lib(coder_assumptions_hwimpl.c.o)
 .debug_info    0x00014ae1       0x4d C:/Users/odona/OneDrive/Yara/Thesis/BMS_Thesis/slprj/ert/BMS_MCU_CODE/coderassumptions/lib/BMS_MCU_CODE_ca.lib(coder_assumptions_flt.c.o)

.debug_abbrev   0x00000000     0x4195
 .debug_abbrev  0x00000000      0x208 xil_interface_lib.c.o
 .debug_abbrev  0x00000208      0x17f xil_data_stream.c.o
 .debug_abbrev  0x00000387      0x132 xil_services.c.o
 .debug_abbrev  0x000004b9      0x235 xil_interface.c.o
 .debug_abbrev  0x000006ee       0xfe xilcomms_rtiostream.c.o
 .debug_abbrev  0x000007ec      0x113 xil_rtiostream.c.o
 .debug_abbrev  0x000008ff       0xcb rtiostream_utils.c.o
 .debug_abbrev  0x000009ca      0x1ad coder_assumptions_app.c.o
 .debug_abbrev  0x00000b77      0x16b coder_assumptions_data_stream.c.o
 .debug_abbrev  0x00000ce2      0x113 coder_assumptions_rtiostream.c.o
 .debug_abbrev  0x00000df5      0x11e pil_main.c.o
 .debug_abbrev  0x00000f13      0x1a7 rtiostream_serial.c.o
 .debug_abbrev  0x000010ba      0x37f stm_usart.c.o
 .debug_abbrev  0x00001439      0x13b platform_timer.c.o
 .debug_abbrev  0x00001574      0x38c main.c.o
 .debug_abbrev  0x00001900      0x192 stm32f4xx_it.c.o
 .debug_abbrev  0x00001a92       0xf7 stm32f4xx_hal_msp.c.o
 .debug_abbrev  0x00001b89      0x1f2 stm32f4xx_hal_timebase_tim.c.o
 .debug_abbrev  0x00001d7b      0x276 stm32f4xx_hal_tim.c.o
 .debug_abbrev  0x00001ff1      0x281 stm32f4xx_hal_tim_ex.c.o
 .debug_abbrev  0x00002272      0x235 stm32f4xx_ll_gpio.c.o
 .debug_abbrev  0x000024a7      0x20f stm32f4xx_ll_spi.c.o
 .debug_abbrev  0x000026b6      0x1ec stm32f4xx_ll_rcc.c.o
 .debug_abbrev  0x000028a2      0x221 stm32f4xx_ll_utils.c.o
 .debug_abbrev  0x00002ac3      0x188 stm32f4xx_ll_exti.c.o
 .debug_abbrev  0x00002c4b      0x2b4 stm32f4xx_hal_rcc.c.o
 .debug_abbrev  0x00002eff      0x326 stm32f4xx_hal_cortex.c.o
 .debug_abbrev  0x00003225      0x212 stm32f4xx_hal.c.o
 .debug_abbrev  0x00003437      0x1f0 stm32f4xx_ll_usart.c.o
 .debug_abbrev  0x00003627      0x118 system_stm32f4xx.c.o
 .debug_abbrev  0x0000373f       0x24 startup_stm32f446retx.s.o
 .debug_abbrev  0x00003763      0x1c1 ../../../../slprj/ert/BMS_MCU_CODE/BMS_MCU_CODE_rtwlib.lib(BMS_MCU_CODE.c.o)
 .debug_abbrev  0x00003924       0x70 C:/Users/odona/OneDrive/Yara/Thesis/BMS_Thesis/slprj/ert/_sharedutils/rtwshared.lib(const_params.c.o)
 .debug_abbrev  0x00003994       0x8d C:/Users/odona/OneDrive/Yara/Thesis/BMS_Thesis/slprj/ert/_sharedutils/rtwshared.lib(intrp2d_fu32fl_pw.c.o)
 .debug_abbrev  0x00003a21       0xa7 C:/Users/odona/OneDrive/Yara/Thesis/BMS_Thesis/slprj/ert/_sharedutils/rtwshared.lib(look1_binlxpw.c.o)
 .debug_abbrev  0x00003ac8       0xcd C:/Users/odona/OneDrive/Yara/Thesis/BMS_Thesis/slprj/ert/_sharedutils/rtwshared.lib(maximum_TTkd84nS.c.o)
 .debug_abbrev  0x00003b95       0xcd C:/Users/odona/OneDrive/Yara/Thesis/BMS_Thesis/slprj/ert/_sharedutils/rtwshared.lib(minimum_ruU8vKTP.c.o)
 .debug_abbrev  0x00003c62       0xbc C:/Users/odona/OneDrive/Yara/Thesis/BMS_Thesis/slprj/ert/_sharedutils/rtwshared.lib(plook_u32ff_binx.c.o)
 .debug_abbrev  0x00003d1e       0xc7 C:/Users/odona/OneDrive/Yara/Thesis/BMS_Thesis/slprj/ert/_sharedutils/rtwshared.lib(rt_nonfinite.c.o)
 .debug_abbrev  0x00003de5       0x9f C:/Users/odona/OneDrive/Yara/Thesis/BMS_Thesis/slprj/ert/_sharedutils/rtwshared.lib(binsearch_u32f.c.o)
 .debug_abbrev  0x00003e84       0xf9 C:/Users/odona/OneDrive/Yara/Thesis/BMS_Thesis/slprj/ert/BMS_MCU_CODE/coderassumptions/lib/BMS_MCU_CODE_ca.lib(BMS_MCU_CODE_ca.c.o)
 .debug_abbrev  0x00003f7d      0x1e2 C:/Users/odona/OneDrive/Yara/Thesis/BMS_Thesis/slprj/ert/BMS_MCU_CODE/coderassumptions/lib/BMS_MCU_CODE_ca.lib(coder_assumptions_hwimpl.c.o)
 .debug_abbrev  0x0000415f       0x36 C:/Users/odona/OneDrive/Yara/Thesis/BMS_Thesis/slprj/ert/BMS_MCU_CODE/coderassumptions/lib/BMS_MCU_CODE_ca.lib(coder_assumptions_flt.c.o)

.debug_aranges  0x00000000     0x16f8
 .debug_aranges
                0x00000000       0x78 xil_interface_lib.c.o
 .debug_aranges
                0x00000078       0x50 xil_data_stream.c.o
 .debug_aranges
                0x000000c8       0x30 xil_services.c.o
 .debug_aranges
                0x000000f8       0x90 xil_interface.c.o
 .debug_aranges
                0x00000188       0x38 xilcomms_rtiostream.c.o
 .debug_aranges
                0x000001c0       0x40 xil_rtiostream.c.o
 .debug_aranges
                0x00000200       0x28 rtiostream_utils.c.o
 .debug_aranges
                0x00000228       0x50 coder_assumptions_app.c.o
 .debug_aranges
                0x00000278       0x40 coder_assumptions_data_stream.c.o
 .debug_aranges
                0x000002b8       0x40 coder_assumptions_rtiostream.c.o
 .debug_aranges
                0x000002f8       0x28 pil_main.c.o
 .debug_aranges
                0x00000320       0x38 rtiostream_serial.c.o
 .debug_aranges
                0x00000358      0x220 stm_usart.c.o
 .debug_aranges
                0x00000578       0x30 platform_timer.c.o
 .debug_aranges
                0x000005a8      0x190 main.c.o
 .debug_aranges
                0x00000738       0x70 stm32f4xx_it.c.o
 .debug_aranges
                0x000007a8       0x20 stm32f4xx_hal_msp.c.o
 .debug_aranges
                0x000007c8       0x30 stm32f4xx_hal_timebase_tim.c.o
 .debug_aranges
                0x000007f8      0x3d0 stm32f4xx_hal_tim.c.o
 .debug_aranges
                0x00000bc8      0x168 stm32f4xx_hal_tim_ex.c.o
 .debug_aranges
                0x00000d30       0x70 stm32f4xx_ll_gpio.c.o
 .debug_aranges
                0x00000da0       0x88 stm32f4xx_ll_spi.c.o
 .debug_aranges
                0x00000e28      0x200 stm32f4xx_ll_rcc.c.o
 .debug_aranges
                0x00001028      0x100 stm32f4xx_ll_utils.c.o
 .debug_aranges
                0x00001128       0x70 stm32f4xx_ll_exti.c.o
 .debug_aranges
                0x00001198       0x88 stm32f4xx_hal_rcc.c.o
 .debug_aranges
                0x00001220      0x120 stm32f4xx_hal_cortex.c.o
 .debug_aranges
                0x00001340       0xf0 stm32f4xx_hal.c.o
 .debug_aranges
                0x00001430       0x88 stm32f4xx_ll_usart.c.o
 .debug_aranges
                0x000014b8       0x28 system_stm32f4xx.c.o
 .debug_aranges
                0x000014e0       0x28 startup_stm32f446retx.s.o
 .debug_aranges
                0x00001508       0x30 ../../../../slprj/ert/BMS_MCU_CODE/BMS_MCU_CODE_rtwlib.lib(BMS_MCU_CODE.c.o)
 .debug_aranges
                0x00001538       0x18 C:/Users/odona/OneDrive/Yara/Thesis/BMS_Thesis/slprj/ert/_sharedutils/rtwshared.lib(const_params.c.o)
 .debug_aranges
                0x00001550       0x20 C:/Users/odona/OneDrive/Yara/Thesis/BMS_Thesis/slprj/ert/_sharedutils/rtwshared.lib(intrp2d_fu32fl_pw.c.o)
 .debug_aranges
                0x00001570       0x20 C:/Users/odona/OneDrive/Yara/Thesis/BMS_Thesis/slprj/ert/_sharedutils/rtwshared.lib(look1_binlxpw.c.o)
 .debug_aranges
                0x00001590       0x20 C:/Users/odona/OneDrive/Yara/Thesis/BMS_Thesis/slprj/ert/_sharedutils/rtwshared.lib(maximum_TTkd84nS.c.o)
 .debug_aranges
                0x000015b0       0x20 C:/Users/odona/OneDrive/Yara/Thesis/BMS_Thesis/slprj/ert/_sharedutils/rtwshared.lib(minimum_ruU8vKTP.c.o)
 .debug_aranges
                0x000015d0       0x20 C:/Users/odona/OneDrive/Yara/Thesis/BMS_Thesis/slprj/ert/_sharedutils/rtwshared.lib(plook_u32ff_binx.c.o)
 .debug_aranges
                0x000015f0       0x38 C:/Users/odona/OneDrive/Yara/Thesis/BMS_Thesis/slprj/ert/_sharedutils/rtwshared.lib(rt_nonfinite.c.o)
 .debug_aranges
                0x00001628       0x20 C:/Users/odona/OneDrive/Yara/Thesis/BMS_Thesis/slprj/ert/_sharedutils/rtwshared.lib(binsearch_u32f.c.o)
 .debug_aranges
                0x00001648       0x20 C:/Users/odona/OneDrive/Yara/Thesis/BMS_Thesis/slprj/ert/BMS_MCU_CODE/coderassumptions/lib/BMS_MCU_CODE_ca.lib(BMS_MCU_CODE_ca.c.o)
 .debug_aranges
                0x00001668       0x78 C:/Users/odona/OneDrive/Yara/Thesis/BMS_Thesis/slprj/ert/BMS_MCU_CODE/coderassumptions/lib/BMS_MCU_CODE_ca.lib(coder_assumptions_hwimpl.c.o)
 .debug_aranges
                0x000016e0       0x18 C:/Users/odona/OneDrive/Yara/Thesis/BMS_Thesis/slprj/ert/BMS_MCU_CODE/coderassumptions/lib/BMS_MCU_CODE_ca.lib(coder_assumptions_flt.c.o)

.debug_rnglists
                0x00000000     0x1117
 .debug_rnglists
                0x00000000       0x84 xil_interface_lib.c.o
 .debug_rnglists
                0x00000084       0x39 xil_data_stream.c.o
 .debug_rnglists
                0x000000bd       0x1f xil_services.c.o
 .debug_rnglists
                0x000000dc       0x6c xil_interface.c.o
 .debug_rnglists
                0x00000148       0x25 xilcomms_rtiostream.c.o
 .debug_rnglists
                0x0000016d       0x2b xil_rtiostream.c.o
 .debug_rnglists
                0x00000198       0x19 rtiostream_utils.c.o
 .debug_rnglists
                0x000001b1       0x3b coder_assumptions_app.c.o
 .debug_rnglists
                0x000001ec       0x2b coder_assumptions_data_stream.c.o
 .debug_rnglists
                0x00000217       0x2b coder_assumptions_rtiostream.c.o
 .debug_rnglists
                0x00000242       0x1a pil_main.c.o
 .debug_rnglists
                0x0000025c       0x25 rtiostream_serial.c.o
 .debug_rnglists
                0x00000281      0x1a2 stm_usart.c.o
 .debug_rnglists
                0x00000423       0x1f platform_timer.c.o
 .debug_rnglists
                0x00000442      0x12b main.c.o
 .debug_rnglists
                0x0000056d       0x4f stm32f4xx_it.c.o
 .debug_rnglists
                0x000005bc       0x13 stm32f4xx_hal_msp.c.o
 .debug_rnglists
                0x000005cf       0x20 stm32f4xx_hal_timebase_tim.c.o
 .debug_rnglists
                0x000005ef      0x31a stm32f4xx_hal_tim.c.o
 .debug_rnglists
                0x00000909      0x125 stm32f4xx_hal_tim_ex.c.o
 .debug_rnglists
                0x00000a2e       0x51 stm32f4xx_ll_gpio.c.o
 .debug_rnglists
                0x00000a7f       0x64 stm32f4xx_ll_spi.c.o
 .debug_rnglists
                0x00000ae3      0x180 stm32f4xx_ll_rcc.c.o
 .debug_rnglists
                0x00000c63       0xbe stm32f4xx_ll_utils.c.o
 .debug_rnglists
                0x00000d21       0x50 stm32f4xx_ll_exti.c.o
 .debug_rnglists
                0x00000d71       0x66 stm32f4xx_hal_rcc.c.o
 .debug_rnglists
                0x00000dd7       0xd4 stm32f4xx_hal_cortex.c.o
 .debug_rnglists
                0x00000eab       0xaf stm32f4xx_hal.c.o
 .debug_rnglists
                0x00000f5a       0x64 stm32f4xx_ll_usart.c.o
 .debug_rnglists
                0x00000fbe       0x1a system_stm32f4xx.c.o
 .debug_rnglists
                0x00000fd8       0x19 startup_stm32f446retx.s.o
 .debug_rnglists
                0x00000ff1       0x20 ../../../../slprj/ert/BMS_MCU_CODE/BMS_MCU_CODE_rtwlib.lib(BMS_MCU_CODE.c.o)
 .debug_rnglists
                0x00001011       0x14 C:/Users/odona/OneDrive/Yara/Thesis/BMS_Thesis/slprj/ert/_sharedutils/rtwshared.lib(intrp2d_fu32fl_pw.c.o)
 .debug_rnglists
                0x00001025       0x14 C:/Users/odona/OneDrive/Yara/Thesis/BMS_Thesis/slprj/ert/_sharedutils/rtwshared.lib(look1_binlxpw.c.o)
 .debug_rnglists
                0x00001039       0x14 C:/Users/odona/OneDrive/Yara/Thesis/BMS_Thesis/slprj/ert/_sharedutils/rtwshared.lib(maximum_TTkd84nS.c.o)
 .debug_rnglists
                0x0000104d       0x14 C:/Users/odona/OneDrive/Yara/Thesis/BMS_Thesis/slprj/ert/_sharedutils/rtwshared.lib(minimum_ruU8vKTP.c.o)
 .debug_rnglists
                0x00001061       0x14 C:/Users/odona/OneDrive/Yara/Thesis/BMS_Thesis/slprj/ert/_sharedutils/rtwshared.lib(plook_u32ff_binx.c.o)
 .debug_rnglists
                0x00001075       0x25 C:/Users/odona/OneDrive/Yara/Thesis/BMS_Thesis/slprj/ert/_sharedutils/rtwshared.lib(rt_nonfinite.c.o)
 .debug_rnglists
                0x0000109a       0x13 C:/Users/odona/OneDrive/Yara/Thesis/BMS_Thesis/slprj/ert/_sharedutils/rtwshared.lib(binsearch_u32f.c.o)
 .debug_rnglists
                0x000010ad       0x13 C:/Users/odona/OneDrive/Yara/Thesis/BMS_Thesis/slprj/ert/BMS_MCU_CODE/coderassumptions/lib/BMS_MCU_CODE_ca.lib(BMS_MCU_CODE_ca.c.o)
 .debug_rnglists
                0x000010c0       0x57 C:/Users/odona/OneDrive/Yara/Thesis/BMS_Thesis/slprj/ert/BMS_MCU_CODE/coderassumptions/lib/BMS_MCU_CODE_ca.lib(coder_assumptions_hwimpl.c.o)

.debug_line     0x00000000    0x10ae4
 .debug_line    0x00000000      0x73c xil_interface_lib.c.o
 .debug_line    0x0000073c      0x466 xil_data_stream.c.o
 .debug_line    0x00000ba2      0x2cf xil_services.c.o
 .debug_line    0x00000e71      0x811 xil_interface.c.o
 .debug_line    0x00001682      0x255 xilcomms_rtiostream.c.o
 .debug_line    0x000018d7      0x1e3 xil_rtiostream.c.o
 .debug_line    0x00001aba      0x217 rtiostream_utils.c.o
 .debug_line    0x00001cd1      0x56c coder_assumptions_app.c.o
 .debug_line    0x0000223d      0x3b3 coder_assumptions_data_stream.c.o
 .debug_line    0x000025f0      0x20c coder_assumptions_rtiostream.c.o
 .debug_line    0x000027fc      0x3b6 pil_main.c.o
 .debug_line    0x00002bb2      0x435 rtiostream_serial.c.o
 .debug_line    0x00002fe7     0x191e stm_usart.c.o
 .debug_line    0x00004905      0x3c2 platform_timer.c.o
 .debug_line    0x00004cc7      0xb59 main.c.o
 .debug_line    0x00005820      0x369 stm32f4xx_it.c.o
 .debug_line    0x00005b89      0x27d stm32f4xx_hal_msp.c.o
 .debug_line    0x00005e06      0x35e stm32f4xx_hal_timebase_tim.c.o
 .debug_line    0x00006164     0x3332 stm32f4xx_hal_tim.c.o
 .debug_line    0x00009496     0x1515 stm32f4xx_hal_tim_ex.c.o
 .debug_line    0x0000a9ab      0x696 stm32f4xx_ll_gpio.c.o
 .debug_line    0x0000b041      0x4f2 stm32f4xx_ll_spi.c.o
 .debug_line    0x0000b533      0xe19 stm32f4xx_ll_rcc.c.o
 .debug_line    0x0000c34c      0x86f stm32f4xx_ll_utils.c.o
 .debug_line    0x0000cbbb      0x3dd stm32f4xx_ll_exti.c.o
 .debug_line    0x0000cf98      0x9e2 stm32f4xx_hal_rcc.c.o
 .debug_line    0x0000d97a      0x88e stm32f4xx_hal_cortex.c.o
 .debug_line    0x0000e208      0x619 stm32f4xx_hal.c.o
 .debug_line    0x0000e821      0x4d9 stm32f4xx_ll_usart.c.o
 .debug_line    0x0000ecfa      0x307 system_stm32f4xx.c.o
 .debug_line    0x0000f001       0x7a startup_stm32f446retx.s.o
 .debug_line    0x0000f07b      0xc0f ../../../../slprj/ert/BMS_MCU_CODE/BMS_MCU_CODE_rtwlib.lib(BMS_MCU_CODE.c.o)
 .debug_line    0x0000fc8a       0x83 C:/Users/odona/OneDrive/Yara/Thesis/BMS_Thesis/slprj/ert/_sharedutils/rtwshared.lib(const_params.c.o)
 .debug_line    0x0000fd0d       0xe3 C:/Users/odona/OneDrive/Yara/Thesis/BMS_Thesis/slprj/ert/_sharedutils/rtwshared.lib(intrp2d_fu32fl_pw.c.o)
 .debug_line    0x0000fdf0      0x11b C:/Users/odona/OneDrive/Yara/Thesis/BMS_Thesis/slprj/ert/_sharedutils/rtwshared.lib(look1_binlxpw.c.o)
 .debug_line    0x0000ff0b      0x11e C:/Users/odona/OneDrive/Yara/Thesis/BMS_Thesis/slprj/ert/_sharedutils/rtwshared.lib(maximum_TTkd84nS.c.o)
 .debug_line    0x00010029      0x11e C:/Users/odona/OneDrive/Yara/Thesis/BMS_Thesis/slprj/ert/_sharedutils/rtwshared.lib(minimum_ruU8vKTP.c.o)
 .debug_line    0x00010147      0x108 C:/Users/odona/OneDrive/Yara/Thesis/BMS_Thesis/slprj/ert/_sharedutils/rtwshared.lib(plook_u32ff_binx.c.o)
 .debug_line    0x0001024f      0x152 C:/Users/odona/OneDrive/Yara/Thesis/BMS_Thesis/slprj/ert/_sharedutils/rtwshared.lib(rt_nonfinite.c.o)
 .debug_line    0x000103a1       0xc2 C:/Users/odona/OneDrive/Yara/Thesis/BMS_Thesis/slprj/ert/_sharedutils/rtwshared.lib(binsearch_u32f.c.o)
 .debug_line    0x00010463      0x132 C:/Users/odona/OneDrive/Yara/Thesis/BMS_Thesis/slprj/ert/BMS_MCU_CODE/coderassumptions/lib/BMS_MCU_CODE_ca.lib(BMS_MCU_CODE_ca.c.o)
 .debug_line    0x00010595      0x4e3 C:/Users/odona/OneDrive/Yara/Thesis/BMS_Thesis/slprj/ert/BMS_MCU_CODE/coderassumptions/lib/BMS_MCU_CODE_ca.lib(coder_assumptions_hwimpl.c.o)
 .debug_line    0x00010a78       0x6c C:/Users/odona/OneDrive/Yara/Thesis/BMS_Thesis/slprj/ert/BMS_MCU_CODE/coderassumptions/lib/BMS_MCU_CODE_ca.lib(coder_assumptions_flt.c.o)

.debug_str      0x00000000     0x7d86
 .debug_str     0x00000000     0x7d86 xil_interface_lib.c.o
                                0xcab (size before relaxing)
 .debug_str     0x00007d86      0x546 xil_data_stream.c.o
 .debug_str     0x00007d86      0x4e1 xil_services.c.o
 .debug_str     0x00007d86      0xea9 xil_interface.c.o
 .debug_str     0x00007d86      0x382 xilcomms_rtiostream.c.o
 .debug_str     0x00007d86      0x2d2 xil_rtiostream.c.o
 .debug_str     0x00007d86      0x2b5 rtiostream_utils.c.o
 .debug_str     0x00007d86      0x9d5 coder_assumptions_app.c.o
 .debug_str     0x00007d86      0x4d2 coder_assumptions_data_stream.c.o
 .debug_str     0x00007d86      0x30e coder_assumptions_rtiostream.c.o
 .debug_str     0x00007d86      0x391 pil_main.c.o
 .debug_str     0x00007d86      0x6f0 rtiostream_serial.c.o
 .debug_str     0x00007d86     0x1442 stm_usart.c.o
 .debug_str     0x00007d86      0x33e platform_timer.c.o
 .debug_str     0x00007d86     0x167a main.c.o
 .debug_str     0x00007d86      0x812 stm32f4xx_it.c.o
 .debug_str     0x00007d86      0x376 stm32f4xx_hal_msp.c.o
 .debug_str     0x00007d86      0xf27 stm32f4xx_hal_timebase_tim.c.o
 .debug_str     0x00007d86     0x1754 stm32f4xx_hal_tim.c.o
 .debug_str     0x00007d86      0xf60 stm32f4xx_hal_tim_ex.c.o
 .debug_str     0x00007d86      0x509 stm32f4xx_ll_gpio.c.o
 .debug_str     0x00007d86      0x5e4 stm32f4xx_ll_spi.c.o
 .debug_str     0x00007d86      0xad4 stm32f4xx_ll_rcc.c.o
 .debug_str     0x00007d86      0x79d stm32f4xx_ll_utils.c.o
 .debug_str     0x00007d86      0x3e3 stm32f4xx_ll_exti.c.o
 .debug_str     0x00007d86      0x774 stm32f4xx_hal_rcc.c.o
 .debug_str     0x00007d86      0xcd9 stm32f4xx_hal_cortex.c.o
 .debug_str     0x00007d86      0xc1f stm32f4xx_hal.c.o
 .debug_str     0x00007d86      0x64f stm32f4xx_ll_usart.c.o
 .debug_str     0x00007d86      0x3ef system_stm32f4xx.c.o
 .debug_str     0x00007d86       0xd5 startup_stm32f446retx.s.o
 .debug_str     0x00007d86      0xa2d ../../../../slprj/ert/BMS_MCU_CODE/BMS_MCU_CODE_rtwlib.lib(BMS_MCU_CODE.c.o)
 .debug_str     0x00007d86      0x27a C:/Users/odona/OneDrive/Yara/Thesis/BMS_Thesis/slprj/ert/_sharedutils/rtwshared.lib(const_params.c.o)
 .debug_str     0x00007d86      0x248 C:/Users/odona/OneDrive/Yara/Thesis/BMS_Thesis/slprj/ert/_sharedutils/rtwshared.lib(intrp2d_fu32fl_pw.c.o)
 .debug_str     0x00007d86      0x239 C:/Users/odona/OneDrive/Yara/Thesis/BMS_Thesis/slprj/ert/_sharedutils/rtwshared.lib(look1_binlxpw.c.o)
 .debug_str     0x00007d86      0x22d C:/Users/odona/OneDrive/Yara/Thesis/BMS_Thesis/slprj/ert/_sharedutils/rtwshared.lib(maximum_TTkd84nS.c.o)
 .debug_str     0x00007d86      0x22d C:/Users/odona/OneDrive/Yara/Thesis/BMS_Thesis/slprj/ert/_sharedutils/rtwshared.lib(minimum_ruU8vKTP.c.o)
 .debug_str     0x00007d86      0x23d C:/Users/odona/OneDrive/Yara/Thesis/BMS_Thesis/slprj/ert/_sharedutils/rtwshared.lib(plook_u32ff_binx.c.o)
 .debug_str     0x00007d86      0x275 C:/Users/odona/OneDrive/Yara/Thesis/BMS_Thesis/slprj/ert/_sharedutils/rtwshared.lib(rt_nonfinite.c.o)
 .debug_str     0x00007d86      0x238 C:/Users/odona/OneDrive/Yara/Thesis/BMS_Thesis/slprj/ert/_sharedutils/rtwshared.lib(binsearch_u32f.c.o)
 .debug_str     0x00007d86      0x5c3 C:/Users/odona/OneDrive/Yara/Thesis/BMS_Thesis/slprj/ert/BMS_MCU_CODE/coderassumptions/lib/BMS_MCU_CODE_ca.lib(BMS_MCU_CODE_ca.c.o)
 .debug_str     0x00007d86      0x60a C:/Users/odona/OneDrive/Yara/Thesis/BMS_Thesis/slprj/ert/BMS_MCU_CODE/coderassumptions/lib/BMS_MCU_CODE_ca.lib(coder_assumptions_hwimpl.c.o)
 .debug_str     0x00007d86      0x18a C:/Users/odona/OneDrive/Yara/Thesis/BMS_Thesis/slprj/ert/BMS_MCU_CODE/coderassumptions/lib/BMS_MCU_CODE_ca.lib(coder_assumptions_flt.c.o)

.comment        0x00000000       0x44
 .comment       0x00000000       0x44 xil_interface_lib.c.o
                                 0x45 (size before relaxing)
 .comment       0x00000044       0x45 xil_data_stream.c.o
 .comment       0x00000044       0x45 xil_services.c.o
 .comment       0x00000044       0x45 xil_interface.c.o
 .comment       0x00000044       0x45 xilcomms_rtiostream.c.o
 .comment       0x00000044       0x45 xil_rtiostream.c.o
 .comment       0x00000044       0x45 rtiostream_utils.c.o
 .comment       0x00000044       0x45 coder_assumptions_app.c.o
 .comment       0x00000044       0x45 coder_assumptions_data_stream.c.o
 .comment       0x00000044       0x45 coder_assumptions_rtiostream.c.o
 .comment       0x00000044       0x45 pil_main.c.o
 .comment       0x00000044       0x45 rtiostream_serial.c.o
 .comment       0x00000044       0x45 stm_usart.c.o
 .comment       0x00000044       0x45 platform_timer.c.o
 .comment       0x00000044       0x45 main.c.o
 .comment       0x00000044       0x45 stm32f4xx_it.c.o
 .comment       0x00000044       0x45 stm32f4xx_hal_msp.c.o
 .comment       0x00000044       0x45 stm32f4xx_hal_timebase_tim.c.o
 .comment       0x00000044       0x45 stm32f4xx_hal_tim.c.o
 .comment       0x00000044       0x45 stm32f4xx_hal_tim_ex.c.o
 .comment       0x00000044       0x45 stm32f4xx_ll_gpio.c.o
 .comment       0x00000044       0x45 stm32f4xx_ll_spi.c.o
 .comment       0x00000044       0x45 stm32f4xx_ll_rcc.c.o
 .comment       0x00000044       0x45 stm32f4xx_ll_utils.c.o
 .comment       0x00000044       0x45 stm32f4xx_ll_exti.c.o
 .comment       0x00000044       0x45 stm32f4xx_hal_rcc.c.o
 .comment       0x00000044       0x45 stm32f4xx_hal_cortex.c.o
 .comment       0x00000044       0x45 stm32f4xx_hal.c.o
 .comment       0x00000044       0x45 stm32f4xx_ll_usart.c.o
 .comment       0x00000044       0x45 system_stm32f4xx.c.o
 .comment       0x00000044       0x45 ../../../../slprj/ert/BMS_MCU_CODE/BMS_MCU_CODE_rtwlib.lib(BMS_MCU_CODE.c.o)
 .comment       0x00000044       0x45 C:/Users/odona/OneDrive/Yara/Thesis/BMS_Thesis/slprj/ert/_sharedutils/rtwshared.lib(const_params.c.o)
 .comment       0x00000044       0x45 C:/Users/odona/OneDrive/Yara/Thesis/BMS_Thesis/slprj/ert/_sharedutils/rtwshared.lib(intrp2d_fu32fl_pw.c.o)
 .comment       0x00000044       0x45 C:/Users/odona/OneDrive/Yara/Thesis/BMS_Thesis/slprj/ert/_sharedutils/rtwshared.lib(look1_binlxpw.c.o)
 .comment       0x00000044       0x45 C:/Users/odona/OneDrive/Yara/Thesis/BMS_Thesis/slprj/ert/_sharedutils/rtwshared.lib(maximum_TTkd84nS.c.o)
 .comment       0x00000044       0x45 C:/Users/odona/OneDrive/Yara/Thesis/BMS_Thesis/slprj/ert/_sharedutils/rtwshared.lib(minimum_ruU8vKTP.c.o)
 .comment       0x00000044       0x45 C:/Users/odona/OneDrive/Yara/Thesis/BMS_Thesis/slprj/ert/_sharedutils/rtwshared.lib(plook_u32ff_binx.c.o)
 .comment       0x00000044       0x45 C:/Users/odona/OneDrive/Yara/Thesis/BMS_Thesis/slprj/ert/_sharedutils/rtwshared.lib(rt_nonfinite.c.o)
 .comment       0x00000044       0x45 C:/Users/odona/OneDrive/Yara/Thesis/BMS_Thesis/slprj/ert/_sharedutils/rtwshared.lib(binsearch_u32f.c.o)
 .comment       0x00000044       0x45 C:/Users/odona/OneDrive/Yara/Thesis/BMS_Thesis/slprj/ert/BMS_MCU_CODE/coderassumptions/lib/BMS_MCU_CODE_ca.lib(BMS_MCU_CODE_ca.c.o)
 .comment       0x00000044       0x45 C:/Users/odona/OneDrive/Yara/Thesis/BMS_Thesis/slprj/ert/BMS_MCU_CODE/coderassumptions/lib/BMS_MCU_CODE_ca.lib(coder_assumptions_hwimpl.c.o)
 .comment       0x00000044       0x45 C:/Users/odona/OneDrive/Yara/Thesis/BMS_Thesis/slprj/ert/BMS_MCU_CODE/coderassumptions/lib/BMS_MCU_CODE_ca.lib(coder_assumptions_flt.c.o)

.debug_frame    0x00000000     0x5d14
 .debug_frame   0x00000000      0x1d0 xil_interface_lib.c.o
 .debug_frame   0x000001d0       0xf4 xil_data_stream.c.o
 .debug_frame   0x000002c4       0x74 xil_services.c.o
 .debug_frame   0x00000338      0x254 xil_interface.c.o
 .debug_frame   0x0000058c       0x98 xilcomms_rtiostream.c.o
 .debug_frame   0x00000624       0xc4 xil_rtiostream.c.o
 .debug_frame   0x000006e8       0x58 rtiostream_utils.c.o
 .debug_frame   0x00000740      0x10c coder_assumptions_app.c.o
 .debug_frame   0x0000084c       0xa4 coder_assumptions_data_stream.c.o
 .debug_frame   0x000008f0       0xc4 coder_assumptions_rtiostream.c.o
 .debug_frame   0x000009b4       0x58 pil_main.c.o
 .debug_frame   0x00000a0c       0xa0 rtiostream_serial.c.o
 .debug_frame   0x00000aac      0x9e0 stm_usart.c.o
 .debug_frame   0x0000148c       0x6c platform_timer.c.o
 .debug_frame   0x000014f8      0x6e8 main.c.o
 .debug_frame   0x00001be0      0x144 stm32f4xx_it.c.o
 .debug_frame   0x00001d24       0x34 stm32f4xx_hal_msp.c.o
 .debug_frame   0x00001d58       0x74 stm32f4xx_hal_timebase_tim.c.o
 .debug_frame   0x00001dcc     0x11c0 stm32f4xx_hal_tim.c.o
 .debug_frame   0x00002f8c      0x638 stm32f4xx_hal_tim_ex.c.o
 .debug_frame   0x000035c4      0x1c0 stm32f4xx_ll_gpio.c.o
 .debug_frame   0x00003784      0x230 stm32f4xx_ll_spi.c.o
 .debug_frame   0x000039b4      0x87c stm32f4xx_ll_rcc.c.o
 .debug_frame   0x00004230      0x418 stm32f4xx_ll_utils.c.o
 .debug_frame   0x00004648      0x1bc stm32f4xx_ll_exti.c.o
 .debug_frame   0x00004804      0x1f4 stm32f4xx_hal_rcc.c.o
 .debug_frame   0x000049f8      0x4b8 stm32f4xx_hal_cortex.c.o
 .debug_frame   0x00004eb0      0x374 stm32f4xx_hal.c.o
 .debug_frame   0x00005224      0x240 stm32f4xx_ll_usart.c.o
 .debug_frame   0x00005464       0x58 system_stm32f4xx.c.o
 .debug_frame   0x000054bc       0x88 ../../../../slprj/ert/BMS_MCU_CODE/BMS_MCU_CODE_rtwlib.lib(BMS_MCU_CODE.c.o)
 .debug_frame   0x00005544       0x38 C:/Users/odona/OneDrive/Yara/Thesis/BMS_Thesis/slprj/ert/_sharedutils/rtwshared.lib(intrp2d_fu32fl_pw.c.o)
 .debug_frame   0x0000557c       0x38 C:/Users/odona/OneDrive/Yara/Thesis/BMS_Thesis/slprj/ert/_sharedutils/rtwshared.lib(look1_binlxpw.c.o)
 .debug_frame   0x000055b4       0x34 C:/Users/odona/OneDrive/Yara/Thesis/BMS_Thesis/slprj/ert/_sharedutils/rtwshared.lib(maximum_TTkd84nS.c.o)
 .debug_frame   0x000055e8       0x34 C:/Users/odona/OneDrive/Yara/Thesis/BMS_Thesis/slprj/ert/_sharedutils/rtwshared.lib(minimum_ruU8vKTP.c.o)
 .debug_frame   0x0000561c       0x34 C:/Users/odona/OneDrive/Yara/Thesis/BMS_Thesis/slprj/ert/_sharedutils/rtwshared.lib(plook_u32ff_binx.c.o)
 .debug_frame   0x00005650       0xac C:/Users/odona/OneDrive/Yara/Thesis/BMS_Thesis/slprj/ert/_sharedutils/rtwshared.lib(rt_nonfinite.c.o)
 .debug_frame   0x000056fc       0x38 C:/Users/odona/OneDrive/Yara/Thesis/BMS_Thesis/slprj/ert/_sharedutils/rtwshared.lib(binsearch_u32f.c.o)
 .debug_frame   0x00005734       0x2c C:/Users/odona/OneDrive/Yara/Thesis/BMS_Thesis/slprj/ert/BMS_MCU_CODE/coderassumptions/lib/BMS_MCU_CODE_ca.lib(BMS_MCU_CODE_ca.c.o)
 .debug_frame   0x00005760      0x1ec C:/Users/odona/OneDrive/Yara/Thesis/BMS_Thesis/slprj/ert/BMS_MCU_CODE/coderassumptions/lib/BMS_MCU_CODE_ca.lib(coder_assumptions_hwimpl.c.o)
 .debug_frame   0x0000594c       0x48 C:/ProgramData/MATLAB/SupportPackages/R2025b/3P.instrset/gnuarm-armcortex.instrset/win/bin/../lib/gcc/arm-none-eabi/13.2.1/thumb/v7e-m+fp/hard\libm.a(libm_a-s_fmin.o)
 .debug_frame   0x00005994       0x20 C:/ProgramData/MATLAB/SupportPackages/R2025b/3P.instrset/gnuarm-armcortex.instrset/win/bin/../lib/gcc/arm-none-eabi/13.2.1/thumb/v7e-m+fp/hard\libm.a(libm_a-s_fpclassify.o)
 .debug_frame   0x000059b4       0x44 C:/ProgramData/MATLAB/SupportPackages/R2025b/3P.instrset/gnuarm-armcortex.instrset/win/bin/../lib/gcc/arm-none-eabi/13.2.1/thumb/v7e-m+fp/hard\libm.a(libm_a-sf_fmax.o)
 .debug_frame   0x000059f8       0x44 C:/ProgramData/MATLAB/SupportPackages/R2025b/3P.instrset/gnuarm-armcortex.instrset/win/bin/../lib/gcc/arm-none-eabi/13.2.1/thumb/v7e-m+fp/hard\libm.a(libm_a-sf_fmin.o)
 .debug_frame   0x00005a3c       0x20 C:/ProgramData/MATLAB/SupportPackages/R2025b/3P.instrset/gnuarm-armcortex.instrset/win/bin/../lib/gcc/arm-none-eabi/13.2.1/thumb/v7e-m+fp/hard\libm.a(libm_a-sf_fpclassify.o)
 .debug_frame   0x00005a5c       0xac C:/ProgramData/MATLAB/SupportPackages/R2025b/3P.instrset/gnuarm-armcortex.instrset/win/bin/../lib/gcc/arm-none-eabi/13.2.1/thumb/v7e-m+fp/hard\libgcc.a(_arm_addsubdf3.o)
 .debug_frame   0x00005b08       0x50 C:/ProgramData/MATLAB/SupportPackages/R2025b/3P.instrset/gnuarm-armcortex.instrset/win/bin/../lib/gcc/arm-none-eabi/13.2.1/thumb/v7e-m+fp/hard\libgcc.a(_arm_muldivdf3.o)
 .debug_frame   0x00005b58       0xc4 C:/ProgramData/MATLAB/SupportPackages/R2025b/3P.instrset/gnuarm-armcortex.instrset/win/bin/../lib/gcc/arm-none-eabi/13.2.1/thumb/v7e-m+fp/hard\libgcc.a(_arm_cmpdf2.o)
 .debug_frame   0x00005c1c       0x24 C:/ProgramData/MATLAB/SupportPackages/R2025b/3P.instrset/gnuarm-armcortex.instrset/win/bin/../lib/gcc/arm-none-eabi/13.2.1/thumb/v7e-m+fp/hard\libgcc.a(_arm_truncdfsf2.o)
 .debug_frame   0x00005c40       0x2c C:/ProgramData/MATLAB/SupportPackages/R2025b/3P.instrset/gnuarm-armcortex.instrset/win/bin/../lib/gcc/arm-none-eabi/13.2.1/thumb/v7e-m+fp/hard\libgcc.a(_aeabi_uldivmod.o)
 .debug_frame   0x00005c6c       0x34 C:/ProgramData/MATLAB/SupportPackages/R2025b/3P.instrset/gnuarm-armcortex.instrset/win/bin/../lib/gcc/arm-none-eabi/13.2.1/thumb/v7e-m+fp/hard\libgcc.a(_udivmoddi4.o)
 .debug_frame   0x00005ca0       0x20 C:/ProgramData/MATLAB/SupportPackages/R2025b/3P.instrset/gnuarm-armcortex.instrset/win/bin/../lib/gcc/arm-none-eabi/13.2.1/thumb/v7e-m+fp/hard\libg_nano.a(libc_a-memset.o)
 .debug_frame   0x00005cc0       0x2c C:/ProgramData/MATLAB/SupportPackages/R2025b/3P.instrset/gnuarm-armcortex.instrset/win/bin/../lib/gcc/arm-none-eabi/13.2.1/thumb/v7e-m+fp/hard\libg_nano.a(libc_a-init.o)
 .debug_frame   0x00005cec       0x28 C:/ProgramData/MATLAB/SupportPackages/R2025b/3P.instrset/gnuarm-armcortex.instrset/win/bin/../lib/gcc/arm-none-eabi/13.2.1/thumb/v7e-m+fp/hard\libg_nano.a(libc_a-memcpy-stub.o)

.debug_loclists
                0x00000000       0x98
 .debug_loclists
                0x00000000       0x98 platform_timer.c.o

.debug_line_str
                0x00000000      0x19b
 .debug_line_str
                0x00000000      0x19b startup_stm32f446retx.s.o
                                 0xb9 (size before relaxing)
 .debug_line_str
                0x0000019b       0xce C:/ProgramData/MATLAB/SupportPackages/R2025b/3P.instrset/gnuarm-armcortex.instrset/win/bin/../lib/gcc/arm-none-eabi/13.2.1/thumb/v7e-m+fp/hard\libgcc.a(_arm_addsubdf3.o)
 .debug_line_str
                0x0000019b       0xce C:/ProgramData/MATLAB/SupportPackages/R2025b/3P.instrset/gnuarm-armcortex.instrset/win/bin/../lib/gcc/arm-none-eabi/13.2.1/thumb/v7e-m+fp/hard\libgcc.a(_arm_muldivdf3.o)
 .debug_line_str
                0x0000019b       0xce C:/ProgramData/MATLAB/SupportPackages/R2025b/3P.instrset/gnuarm-armcortex.instrset/win/bin/../lib/gcc/arm-none-eabi/13.2.1/thumb/v7e-m+fp/hard\libgcc.a(_arm_cmpdf2.o)
 .debug_line_str
                0x0000019b       0xce C:/ProgramData/MATLAB/SupportPackages/R2025b/3P.instrset/gnuarm-armcortex.instrset/win/bin/../lib/gcc/arm-none-eabi/13.2.1/thumb/v7e-m+fp/hard\libgcc.a(_arm_truncdfsf2.o)
 .debug_line_str
                0x0000019b       0xc9 C:/ProgramData/MATLAB/SupportPackages/R2025b/3P.instrset/gnuarm-armcortex.instrset/win/bin/../lib/gcc/arm-none-eabi/13.2.1/thumb/v7e-m+fp/hard\libgcc.a(_aeabi_uldivmod.o)
 .debug_line_str
                0x0000019b       0xcd C:/ProgramData/MATLAB/SupportPackages/R2025b/3P.instrset/gnuarm-armcortex.instrset/win/bin/../lib/gcc/arm-none-eabi/13.2.1/thumb/v7e-m+fp/hard\libgcc.a(_dvmd_tls.o)
