Archive member included to satisfy reference by file (symbol)

C:/ProgramData/MATLAB/SupportPackages/R2025b/3P.instrset/gnuarm-armcortex.instrset/win/bin/../lib/gcc/arm-none-eabi/13.2.1/thumb/v7e-m+fp/hard\libm.a(libm_a-w_fmod.o)
                              xcp_ext_common.c.o (fmod)
C:/ProgramData/MATLAB/SupportPackages/R2025b/3P.instrset/gnuarm-armcortex.instrset/win/bin/../lib/gcc/arm-none-eabi/13.2.1/thumb/v7e-m+fp/hard\libm.a(libm_a-e_fmod.o)
                              C:/ProgramData/MATLAB/SupportPackages/R2025b/3P.instrset/gnuarm-armcortex.instrset/win/bin/../lib/gcc/arm-none-eabi/13.2.1/thumb/v7e-m+fp/hard\libm.a(libm_a-w_fmod.o) (__ieee754_fmod)
C:/ProgramData/MATLAB/SupportPackages/R2025b/3P.instrset/gnuarm-armcortex.instrset/win/bin/../lib/gcc/arm-none-eabi/13.2.1/thumb/v7e-m+fp/hard\libgcc.a(_arm_muldf3.o)
                              BMS_MCU_CODE.c.o (__aeabi_dmul)
C:/ProgramData/MATLAB/SupportPackages/R2025b/3P.instrset/gnuarm-armcortex.instrset/win/bin/../lib/gcc/arm-none-eabi/13.2.1/thumb/v7e-m+fp/hard\libgcc.a(_arm_addsubdf3.o)
                              xcp_ext_common.c.o (__aeabi_dsub)
C:/ProgramData/MATLAB/SupportPackages/R2025b/3P.instrset/gnuarm-armcortex.instrset/win/bin/../lib/gcc/arm-none-eabi/13.2.1/thumb/v7e-m+fp/hard\libgcc.a(_arm_muldivdf3.o)
                              xcp_ext_common.c.o (__aeabi_ddiv)
C:/ProgramData/MATLAB/SupportPackages/R2025b/3P.instrset/gnuarm-armcortex.instrset/win/bin/../lib/gcc/arm-none-eabi/13.2.1/thumb/v7e-m+fp/hard\libgcc.a(_arm_cmpdf2.o)
                              xcp_ext_mode.c.o (__aeabi_dcmpeq)
C:/ProgramData/MATLAB/SupportPackages/R2025b/3P.instrset/gnuarm-armcortex.instrset/win/bin/../lib/gcc/arm-none-eabi/13.2.1/thumb/v7e-m+fp/hard\libgcc.a(_arm_unorddf2.o)
                              C:/ProgramData/MATLAB/SupportPackages/R2025b/3P.instrset/gnuarm-armcortex.instrset/win/bin/../lib/gcc/arm-none-eabi/13.2.1/thumb/v7e-m+fp/hard\libm.a(libm_a-w_fmod.o) (__aeabi_dcmpun)
C:/ProgramData/MATLAB/SupportPackages/R2025b/3P.instrset/gnuarm-armcortex.instrset/win/bin/../lib/gcc/arm-none-eabi/13.2.1/thumb/v7e-m+fp/hard\libgcc.a(_arm_fixunsdfsi.o)
                              xcp_ext_common.c.o (__aeabi_d2uiz)
C:/ProgramData/MATLAB/SupportPackages/R2025b/3P.instrset/gnuarm-armcortex.instrset/win/bin/../lib/gcc/arm-none-eabi/13.2.1/thumb/v7e-m+fp/hard\libgcc.a(_aeabi_uldivmod.o)
                              stm32f4xx_hal_rcc.c.o (__aeabi_uldivmod)
C:/ProgramData/MATLAB/SupportPackages/R2025b/3P.instrset/gnuarm-armcortex.instrset/win/bin/../lib/gcc/arm-none-eabi/13.2.1/thumb/v7e-m+fp/hard\libgcc.a(_udivmoddi4.o)
                              C:/ProgramData/MATLAB/SupportPackages/R2025b/3P.instrset/gnuarm-armcortex.instrset/win/bin/../lib/gcc/arm-none-eabi/13.2.1/thumb/v7e-m+fp/hard\libgcc.a(_aeabi_uldivmod.o) (__udivmoddi4)
C:/ProgramData/MATLAB/SupportPackages/R2025b/3P.instrset/gnuarm-armcortex.instrset/win/bin/../lib/gcc/arm-none-eabi/13.2.1/thumb/v7e-m+fp/hard\libgcc.a(_dvmd_tls.o)
                              C:/ProgramData/MATLAB/SupportPackages/R2025b/3P.instrset/gnuarm-armcortex.instrset/win/bin/../lib/gcc/arm-none-eabi/13.2.1/thumb/v7e-m+fp/hard\libgcc.a(_aeabi_uldivmod.o) (__aeabi_ldiv0)
C:/ProgramData/MATLAB/SupportPackages/R2025b/3P.instrset/gnuarm-armcortex.instrset/win/bin/../lib/gcc/arm-none-eabi/13.2.1/thumb/v7e-m+fp/hard\libg_nano.a(libc_a-exit.o)
                              C:/ProgramData/MATLAB/SupportPackages/R2025b/3P.instrset/gnuarm-armcortex.instrset/win/bin/../lib/gcc/arm-none-eabi/13.2.1/thumb/v7e-m+fp/hard/crt0.o (exit)
C:/ProgramData/MATLAB/SupportPackages/R2025b/3P.instrset/gnuarm-armcortex.instrset/win/bin/../lib/gcc/arm-none-eabi/13.2.1/thumb/v7e-m+fp/hard\libg_nano.a(libc_a-findfp.o)
                              C:/ProgramData/MATLAB/SupportPackages/R2025b/3P.instrset/gnuarm-armcortex.instrset/win/bin/../lib/gcc/arm-none-eabi/13.2.1/thumb/v7e-m+fp/hard\libg_nano.a(libc_a-exit.o) (__stdio_exit_handler)
C:/ProgramData/MATLAB/SupportPackages/R2025b/3P.instrset/gnuarm-armcortex.instrset/win/bin/../lib/gcc/arm-none-eabi/13.2.1/thumb/v7e-m+fp/hard\libg_nano.a(libc_a-fwalk.o)
                              C:/ProgramData/MATLAB/SupportPackages/R2025b/3P.instrset/gnuarm-armcortex.instrset/win/bin/../lib/gcc/arm-none-eabi/13.2.1/thumb/v7e-m+fp/hard\libg_nano.a(libc_a-findfp.o) (_fwalk_sglue)
C:/ProgramData/MATLAB/SupportPackages/R2025b/3P.instrset/gnuarm-armcortex.instrset/win/bin/../lib/gcc/arm-none-eabi/13.2.1/thumb/v7e-m+fp/hard\libg_nano.a(libc_a-stdio.o)
                              C:/ProgramData/MATLAB/SupportPackages/R2025b/3P.instrset/gnuarm-armcortex.instrset/win/bin/../lib/gcc/arm-none-eabi/13.2.1/thumb/v7e-m+fp/hard\libg_nano.a(libc_a-findfp.o) (__sread)
C:/ProgramData/MATLAB/SupportPackages/R2025b/3P.instrset/gnuarm-armcortex.instrset/win/bin/../lib/gcc/arm-none-eabi/13.2.1/thumb/v7e-m+fp/hard\libg_nano.a(libc_a-memset.o)
                              C:/ProgramData/MATLAB/SupportPackages/R2025b/3P.instrset/gnuarm-armcortex.instrset/win/bin/../lib/gcc/arm-none-eabi/13.2.1/thumb/v7e-m+fp/hard/crt0.o (memset)
C:/ProgramData/MATLAB/SupportPackages/R2025b/3P.instrset/gnuarm-armcortex.instrset/win/bin/../lib/gcc/arm-none-eabi/13.2.1/thumb/v7e-m+fp/hard\libg_nano.a(libc_a-closer.o)
                              C:/ProgramData/MATLAB/SupportPackages/R2025b/3P.instrset/gnuarm-armcortex.instrset/win/bin/../lib/gcc/arm-none-eabi/13.2.1/thumb/v7e-m+fp/hard\libg_nano.a(libc_a-stdio.o) (_close_r)
C:/ProgramData/MATLAB/SupportPackages/R2025b/3P.instrset/gnuarm-armcortex.instrset/win/bin/../lib/gcc/arm-none-eabi/13.2.1/thumb/v7e-m+fp/hard\libg_nano.a(libc_a-reent.o)
                              C:/ProgramData/MATLAB/SupportPackages/R2025b/3P.instrset/gnuarm-armcortex.instrset/win/bin/../lib/gcc/arm-none-eabi/13.2.1/thumb/v7e-m+fp/hard\libg_nano.a(libc_a-closer.o) (errno)
C:/ProgramData/MATLAB/SupportPackages/R2025b/3P.instrset/gnuarm-armcortex.instrset/win/bin/../lib/gcc/arm-none-eabi/13.2.1/thumb/v7e-m+fp/hard\libg_nano.a(libc_a-impure.o)
                              C:/ProgramData/MATLAB/SupportPackages/R2025b/3P.instrset/gnuarm-armcortex.instrset/win/bin/../lib/gcc/arm-none-eabi/13.2.1/thumb/v7e-m+fp/hard\libg_nano.a(libc_a-reent.o) (_impure_ptr)
C:/ProgramData/MATLAB/SupportPackages/R2025b/3P.instrset/gnuarm-armcortex.instrset/win/bin/../lib/gcc/arm-none-eabi/13.2.1/thumb/v7e-m+fp/hard\libg_nano.a(libc_a-lseekr.o)
                              C:/ProgramData/MATLAB/SupportPackages/R2025b/3P.instrset/gnuarm-armcortex.instrset/win/bin/../lib/gcc/arm-none-eabi/13.2.1/thumb/v7e-m+fp/hard\libg_nano.a(libc_a-stdio.o) (_lseek_r)
C:/ProgramData/MATLAB/SupportPackages/R2025b/3P.instrset/gnuarm-armcortex.instrset/win/bin/../lib/gcc/arm-none-eabi/13.2.1/thumb/v7e-m+fp/hard\libg_nano.a(libc_a-readr.o)
                              C:/ProgramData/MATLAB/SupportPackages/R2025b/3P.instrset/gnuarm-armcortex.instrset/win/bin/../lib/gcc/arm-none-eabi/13.2.1/thumb/v7e-m+fp/hard\libg_nano.a(libc_a-stdio.o) (_read_r)
C:/ProgramData/MATLAB/SupportPackages/R2025b/3P.instrset/gnuarm-armcortex.instrset/win/bin/../lib/gcc/arm-none-eabi/13.2.1/thumb/v7e-m+fp/hard\libg_nano.a(libc_a-writer.o)
                              C:/ProgramData/MATLAB/SupportPackages/R2025b/3P.instrset/gnuarm-armcortex.instrset/win/bin/../lib/gcc/arm-none-eabi/13.2.1/thumb/v7e-m+fp/hard\libg_nano.a(libc_a-stdio.o) (_write_r)
C:/ProgramData/MATLAB/SupportPackages/R2025b/3P.instrset/gnuarm-armcortex.instrset/win/bin/../lib/gcc/arm-none-eabi/13.2.1/thumb/v7e-m+fp/hard\libg_nano.a(libc_a-errno.o)
                              syscalls.c.o (__errno)
C:/ProgramData/MATLAB/SupportPackages/R2025b/3P.instrset/gnuarm-armcortex.instrset/win/bin/../lib/gcc/arm-none-eabi/13.2.1/thumb/v7e-m+fp/hard\libg_nano.a(libc_a-init.o)
                              C:/ProgramData/MATLAB/SupportPackages/R2025b/3P.instrset/gnuarm-armcortex.instrset/win/bin/../lib/gcc/arm-none-eabi/13.2.1/thumb/v7e-m+fp/hard/crt0.o (__libc_init_array)
C:/ProgramData/MATLAB/SupportPackages/R2025b/3P.instrset/gnuarm-armcortex.instrset/win/bin/../lib/gcc/arm-none-eabi/13.2.1/thumb/v7e-m+fp/hard\libg_nano.a(libc_a-lock.o)
                              C:/ProgramData/MATLAB/SupportPackages/R2025b/3P.instrset/gnuarm-armcortex.instrset/win/bin/../lib/gcc/arm-none-eabi/13.2.1/thumb/v7e-m+fp/hard\libg_nano.a(libc_a-findfp.o) (__retarget_lock_init_recursive)
C:/ProgramData/MATLAB/SupportPackages/R2025b/3P.instrset/gnuarm-armcortex.instrset/win/bin/../lib/gcc/arm-none-eabi/13.2.1/thumb/v7e-m+fp/hard\libg_nano.a(libc_a-memcpy-stub.o)
                              mw_stm32_spi_ll.c.o (memcpy)
C:/ProgramData/MATLAB/SupportPackages/R2025b/3P.instrset/gnuarm-armcortex.instrset/win/bin/../lib/gcc/arm-none-eabi/13.2.1/thumb/v7e-m+fp/hard\libg_nano.a(libc_a-freer.o)
                              C:/ProgramData/MATLAB/SupportPackages/R2025b/3P.instrset/gnuarm-armcortex.instrset/win/bin/../lib/gcc/arm-none-eabi/13.2.1/thumb/v7e-m+fp/hard\libg_nano.a(libc_a-reent.o) (_free_r)
C:/ProgramData/MATLAB/SupportPackages/R2025b/3P.instrset/gnuarm-armcortex.instrset/win/bin/../lib/gcc/arm-none-eabi/13.2.1/thumb/v7e-m+fp/hard\libg_nano.a(libc_a-mallocr.o)
                              C:/ProgramData/MATLAB/SupportPackages/R2025b/3P.instrset/gnuarm-armcortex.instrset/win/bin/../lib/gcc/arm-none-eabi/13.2.1/thumb/v7e-m+fp/hard\libg_nano.a(libc_a-findfp.o) (_malloc_r)
C:/ProgramData/MATLAB/SupportPackages/R2025b/3P.instrset/gnuarm-armcortex.instrset/win/bin/../lib/gcc/arm-none-eabi/13.2.1/thumb/v7e-m+fp/hard\libg_nano.a(libc_a-mlock.o)
                              C:/ProgramData/MATLAB/SupportPackages/R2025b/3P.instrset/gnuarm-armcortex.instrset/win/bin/../lib/gcc/arm-none-eabi/13.2.1/thumb/v7e-m+fp/hard\libg_nano.a(libc_a-freer.o) (__malloc_lock)
C:/ProgramData/MATLAB/SupportPackages/R2025b/3P.instrset/gnuarm-armcortex.instrset/win/bin/../lib/gcc/arm-none-eabi/13.2.1/thumb/v7e-m+fp/hard\libg_nano.a(libc_a-fflush.o)
                              C:/ProgramData/MATLAB/SupportPackages/R2025b/3P.instrset/gnuarm-armcortex.instrset/win/bin/../lib/gcc/arm-none-eabi/13.2.1/thumb/v7e-m+fp/hard\libg_nano.a(libc_a-findfp.o) (_fflush_r)
C:/ProgramData/MATLAB/SupportPackages/R2025b/3P.instrset/gnuarm-armcortex.instrset/win/bin/../lib/gcc/arm-none-eabi/13.2.1/thumb/v7e-m+fp/hard\libg_nano.a(libc_a-sbrkr.o)
                              C:/ProgramData/MATLAB/SupportPackages/R2025b/3P.instrset/gnuarm-armcortex.instrset/win/bin/../lib/gcc/arm-none-eabi/13.2.1/thumb/v7e-m+fp/hard\libg_nano.a(libc_a-mallocr.o) (_sbrk_r)

Discarded input sections

 .text          0x00000000        0x0 C:/ProgramData/MATLAB/SupportPackages/R2025b/3P.instrset/gnuarm-armcortex.instrset/win/bin/../lib/gcc/arm-none-eabi/13.2.1/thumb/v7e-m+fp/hard/crti.o
 .data          0x00000000        0x0 C:/ProgramData/MATLAB/SupportPackages/R2025b/3P.instrset/gnuarm-armcortex.instrset/win/bin/../lib/gcc/arm-none-eabi/13.2.1/thumb/v7e-m+fp/hard/crti.o
 .bss           0x00000000        0x0 C:/ProgramData/MATLAB/SupportPackages/R2025b/3P.instrset/gnuarm-armcortex.instrset/win/bin/../lib/gcc/arm-none-eabi/13.2.1/thumb/v7e-m+fp/hard/crti.o
 .text          0x00000000        0x0 C:/ProgramData/MATLAB/SupportPackages/R2025b/3P.instrset/gnuarm-armcortex.instrset/win/bin/../lib/gcc/arm-none-eabi/13.2.1/thumb/v7e-m+fp/hard/crtbegin.o
 .data          0x00000000        0x0 C:/ProgramData/MATLAB/SupportPackages/R2025b/3P.instrset/gnuarm-armcortex.instrset/win/bin/../lib/gcc/arm-none-eabi/13.2.1/thumb/v7e-m+fp/hard/crtbegin.o
 .bss           0x00000000        0x0 C:/ProgramData/MATLAB/SupportPackages/R2025b/3P.instrset/gnuarm-armcortex.instrset/win/bin/../lib/gcc/arm-none-eabi/13.2.1/thumb/v7e-m+fp/hard/crtbegin.o
 .rodata.all_implied_fbits
                0x00000000       0x24 C:/ProgramData/MATLAB/SupportPackages/R2025b/3P.instrset/gnuarm-armcortex.instrset/win/bin/../lib/gcc/arm-none-eabi/13.2.1/thumb/v7e-m+fp/hard/crtbegin.o
 .data.__dso_handle
                0x00000000        0x4 C:/ProgramData/MATLAB/SupportPackages/R2025b/3P.instrset/gnuarm-armcortex.instrset/win/bin/../lib/gcc/arm-none-eabi/13.2.1/thumb/v7e-m+fp/hard/crtbegin.o
 .text          0x00000000       0x7c C:/ProgramData/MATLAB/SupportPackages/R2025b/3P.instrset/gnuarm-armcortex.instrset/win/bin/../lib/gcc/arm-none-eabi/13.2.1/thumb/v7e-m+fp/hard/crt0.o
 .data          0x00000000        0x0 C:/ProgramData/MATLAB/SupportPackages/R2025b/3P.instrset/gnuarm-armcortex.instrset/win/bin/../lib/gcc/arm-none-eabi/13.2.1/thumb/v7e-m+fp/hard/crt0.o
 .bss           0x00000000        0x0 C:/ProgramData/MATLAB/SupportPackages/R2025b/3P.instrset/gnuarm-armcortex.instrset/win/bin/../lib/gcc/arm-none-eabi/13.2.1/thumb/v7e-m+fp/hard/crt0.o
 .ARM.extab     0x00000000        0x0 C:/ProgramData/MATLAB/SupportPackages/R2025b/3P.instrset/gnuarm-armcortex.instrset/win/bin/../lib/gcc/arm-none-eabi/13.2.1/thumb/v7e-m+fp/hard/crt0.o
 .ARM.exidx     0x00000000       0x10 C:/ProgramData/MATLAB/SupportPackages/R2025b/3P.instrset/gnuarm-armcortex.instrset/win/bin/../lib/gcc/arm-none-eabi/13.2.1/thumb/v7e-m+fp/hard/crt0.o
 .debug_line_str
                0x00000000       0xd6 C:/ProgramData/MATLAB/SupportPackages/R2025b/3P.instrset/gnuarm-armcortex.instrset/win/bin/../lib/gcc/arm-none-eabi/13.2.1/thumb/v7e-m+fp/hard/crt0.o
 .ARM.attributes
                0x00000000       0x20 C:/ProgramData/MATLAB/SupportPackages/R2025b/3P.instrset/gnuarm-armcortex.instrset/win/bin/../lib/gcc/arm-none-eabi/13.2.1/thumb/v7e-m+fp/hard/crt0.o
 .text          0x00000000        0x0 mw_stm32_spi_ll.c.o
 .data          0x00000000        0x0 mw_stm32_spi_ll.c.o
 .bss           0x00000000        0x0 mw_stm32_spi_ll.c.o
 .text.LL_DMA_DisableStream
                0x00000000       0x40 mw_stm32_spi_ll.c.o
 .text.LL_DMA_GetMode
                0x00000000       0x30 mw_stm32_spi_ll.c.o
 .text.LL_DMA_SetMemoryAddress
                0x00000000       0x30 mw_stm32_spi_ll.c.o
 .text.LL_DMA_IsEnabledIT_TC
                0x00000000       0x38 mw_stm32_spi_ll.c.o
 .text.LL_SPI_SetTransferDirection
                0x00000000       0x26 mw_stm32_spi_ll.c.o
 .text.LL_SPI_IsActiveFlag_MODF
                0x00000000       0x26 mw_stm32_spi_ll.c.o
 .text.LL_SPI_IsActiveFlag_OVR
                0x00000000       0x26 mw_stm32_spi_ll.c.o
 .text.LL_SPI_ClearFlag_MODF
                0x00000000       0x28 mw_stm32_spi_ll.c.o
 .text.LL_SPI_ClearFlag_OVR
                0x00000000       0x24 mw_stm32_spi_ll.c.o
 .text.LL_SPI_EnableIT_ERR
                0x00000000       0x20 mw_stm32_spi_ll.c.o
 .text.LL_SPI_EnableIT_TXE
                0x00000000       0x20 mw_stm32_spi_ll.c.o
 .text.LL_SPI_DisableIT_RXNE
                0x00000000       0x20 mw_stm32_spi_ll.c.o
 .text.LL_SPI_DisableIT_TXE
                0x00000000       0x20 mw_stm32_spi_ll.c.o
 .text.LL_SPI_IsEnabledIT_ERR
                0x00000000       0x26 mw_stm32_spi_ll.c.o
 .text.LL_SPI_IsEnabledIT_RXNE
                0x00000000       0x26 mw_stm32_spi_ll.c.o
 .text.LL_SPI_IsEnabledIT_TXE
                0x00000000       0x26 mw_stm32_spi_ll.c.o
 .text.LL_GPIO_SetOutputPin
                0x00000000       0x1c mw_stm32_spi_ll.c.o
 .text.LL_GPIO_ResetOutputPin
                0x00000000       0x1e mw_stm32_spi_ll.c.o
 .text.MW_SPI_Direction_Set
                0x00000000       0x60 mw_stm32_spi_ll.c.o
 .text.MW_SPI_Write_Databits
                0x00000000      0x13e mw_stm32_spi_ll.c.o
 .text.MW_SPI_Read_Databits
                0x00000000      0x1a0 mw_stm32_spi_ll.c.o
 .text.MW_STM32_EnableSPIx_Interrupts
                0x00000000       0x74 mw_stm32_spi_ll.c.o
 .text.MW_SPI_STM32_H7xx_FIFO_Init
                0x00000000       0x1c mw_stm32_spi_ll.c.o
 .text.MW_SPI_SetSlaveSelect
                0x00000000       0x1c mw_stm32_spi_ll.c.o
 .text.errorHandle_WriteDataBits
                0x00000000       0x16 mw_stm32_spi_ll.c.o
 .text.errorHandle_ReadDataBits
                0x00000000       0xac mw_stm32_spi_ll.c.o
 .text.MW_SPI_checkIfTransmitBufferFull
                0x00000000       0x64 mw_stm32_spi_ll.c.o
 .text.MW_SPI_copyToTransmitBuffer
                0x00000000      0x242 mw_stm32_spi_ll.c.o
 .text.MW_SPI_getAvailableDataInBuffer
                0x00000000       0x74 mw_stm32_spi_ll.c.o
 .text.MW_SPI_getBytesToBeReadFromBuffer
                0x00000000       0x8a mw_stm32_spi_ll.c.o
 .text.MW_SPI_readDataFromBuffer
                0x00000000      0x1f0 mw_stm32_spi_ll.c.o
 .text.MW_SPI_TransmitUsingInterrupt
                0x00000000      0x110 mw_stm32_spi_ll.c.o
 .text.MW_SPI_TransmitUsingDMA
                0x00000000      0x18a mw_stm32_spi_ll.c.o
 .text.MW_SPI_ReceiveUsingBuffer
                0x00000000       0x92 mw_stm32_spi_ll.c.o
 .text.SPI_IsActiveFlagTXE
                0x00000000       0xec mw_stm32_spi_ll.c.o
 .text.SPI_IsActiveFlagRXNE
                0x00000000       0xd6 mw_stm32_spi_ll.c.o
 .text.SPI_RXDMAInterruptHandler
                0x00000000       0xda mw_stm32_spi_ll.c.o
 .text.SPI_TXDMAInterruptHandler
                0x00000000      0x1be mw_stm32_spi_ll.c.o
 .text.setChipSelect
                0x00000000       0x60 mw_stm32_spi_ll.c.o
 .text.resetChipSelect
                0x00000000       0x60 mw_stm32_spi_ll.c.o
 .text.SPI_IsActiveFlagError
                0x00000000       0x92 mw_stm32_spi_ll.c.o
 .text          0x00000000        0x0 xcp_ext_mode.c.o
 .data          0x00000000        0x0 xcp_ext_mode.c.o
 .bss           0x00000000        0x0 xcp_ext_mode.c.o
 .rodata.STREAM_OFFSET_TAB
                0x00000000        0x8 xcp_ext_mode.c.o
 .text.extmodeStartRequested
                0x00000000       0x18 xcp_ext_mode.c.o
 .text.extmodeGetFinalSimulationTime
                0x00000000       0x60 xcp_ext_mode.c.o
 .text.extmodeSetFinalSimulationTime
                0x00000000       0x60 xcp_ext_mode.c.o
 .text.extmodeGetEventTriggerEnable
                0x00000000       0x54 xcp_ext_mode.c.o
 .text.extmodeSetEventTriggerEnable
                0x00000000       0x3c xcp_ext_mode.c.o
 .text          0x00000000        0x0 BMS_MCU_CODE.c.o
 .data          0x00000000        0x0 BMS_MCU_CODE.c.o
 .bss           0x00000000        0x0 BMS_MCU_CODE.c.o
 .rodata.STREAM_OFFSET_TAB
                0x00000000        0x8 BMS_MCU_CODE.c.o
 .text          0x00000000        0x0 BMS_MCU_CODE_data.c.o
 .data          0x00000000        0x0 BMS_MCU_CODE_data.c.o
 .bss           0x00000000        0x0 BMS_MCU_CODE_data.c.o
 .rodata.STREAM_OFFSET_TAB
                0x00000000        0x8 BMS_MCU_CODE_data.c.o
 .text          0x00000000        0x0 ert_main.c.o
 .data          0x00000000        0x0 ert_main.c.o
 .bss           0x00000000        0x0 ert_main.c.o
 .rodata.STREAM_OFFSET_TAB
                0x00000000        0x8 ert_main.c.o
 .text          0x00000000        0x0 xcp_ext_common.c.o
 .data          0x00000000        0x0 xcp_ext_common.c.o
 .bss           0x00000000        0x0 xcp_ext_common.c.o
 .rodata.STREAM_OFFSET_TAB
                0x00000000        0x8 xcp_ext_common.c.o
 .text.xcpExtModeGetUpdatedTimestamp
                0x00000000       0x84 xcp_ext_common.c.o
 .text.xcpExtModeGetSimulationTime
                0x00000000       0x10 xcp_ext_common.c.o
 .text          0x00000000        0x0 xcp_ext_classic_trigger.c.o
 .data          0x00000000        0x0 xcp_ext_classic_trigger.c.o
 .bss           0x00000000        0x0 xcp_ext_classic_trigger.c.o
 .rodata.STREAM_OFFSET_TAB
                0x00000000        0x8 xcp_ext_classic_trigger.c.o
 .text          0x00000000        0x0 xcp.c.o
 .data          0x00000000        0x0 xcp.c.o
 .bss           0x00000000        0x0 xcp.c.o
 .rodata.STREAM_OFFSET_TAB
                0x00000000        0x8 xcp.c.o
 .text.xcpStatusGet
                0x00000000       0x18 xcp.c.o
 .text.xcpSessionStatusSet
                0x00000000       0x20 xcp.c.o
 .text.xcpResourceProtectionStatusSet
                0x00000000       0x20 xcp.c.o
 .text.xcpResourceProtectionSetMask
                0x00000000       0x28 xcp.c.o
 .text.xcpResourceProtectionClearMask
                0x00000000       0x34 xcp.c.o
 .text.xcpSessionConfigurationIdSet
                0x00000000       0x20 xcp.c.o
 .text.xcpEventExternalTimestamp
                0x00000000       0x48 xcp.c.o
 .text.xcpEventNotificationReq
                0x00000000       0xf0 xcp.c.o
 .text.xcpRemoteServiceReq
                0x00000000       0xf0 xcp.c.o
 .text.xcpSetCustomPoolMemoryManager
                0x00000000       0x2a xcp.c.o
 .text.xcpGetCustomPoolMemoryManager
                0x00000000       0x26 xcp.c.o
 .text          0x00000000        0x0 xcp_standard.c.o
 .data          0x00000000        0x0 xcp_standard.c.o
 .bss           0x00000000        0x0 xcp_standard.c.o
 .rodata.STREAM_OFFSET_TAB
                0x00000000        0x8 xcp_standard.c.o
 .rodata.xcpResourceValue
                0x00000000        0x1 xcp_standard.c.o
 .rodata.xcpCommModeBaseValue
                0x00000000        0x1 xcp_standard.c.o
 .text.xcpStandardGetMta
                0x00000000       0x2c xcp_standard.c.o
 .text          0x00000000        0x0 xcp_daq.c.o
 .data          0x00000000        0x0 xcp_daq.c.o
 .bss           0x00000000        0x0 xcp_daq.c.o
 .rodata.STREAM_OFFSET_TAB
                0x00000000        0x8 xcp_daq.c.o
 .text.xcpDaqSetCustomPoolMemoryManager
                0x00000000       0x44 xcp_daq.c.o
 .text.xcpDaqGetCustomPoolMemoryManager
                0x00000000       0x5c xcp_daq.c.o
 .text          0x00000000        0x0 xcp_calibration.c.o
 .data          0x00000000        0x0 xcp_calibration.c.o
 .bss           0x00000000        0x0 xcp_calibration.c.o
 .rodata.STREAM_OFFSET_TAB
                0x00000000        0x8 xcp_calibration.c.o
 .text          0x00000000        0x0 xcp_fifo.c.o
 .data          0x00000000        0x0 xcp_fifo.c.o
 .bss           0x00000000        0x0 xcp_fifo.c.o
 .rodata.STREAM_OFFSET_TAB
                0x00000000        0x8 xcp_fifo.c.o
 .text.xcpFifoSpliceHead
                0x00000000       0x3c xcp_fifo.c.o
 .text.xcpFifoEmpty
                0x00000000       0x22 xcp_fifo.c.o
 .text          0x00000000        0x0 xcp_transport.c.o
 .data          0x00000000        0x0 xcp_transport.c.o
 .bss           0x00000000        0x0 xcp_transport.c.o
 .rodata.STREAM_OFFSET_TAB
                0x00000000        0x8 xcp_transport.c.o
 .text          0x00000000        0x0 xcp_mem_default.c.o
 .data          0x00000000        0x0 xcp_mem_default.c.o
 .bss           0x00000000        0x0 xcp_mem_default.c.o
 .rodata.STREAM_OFFSET_TAB
                0x00000000        0x8 xcp_mem_default.c.o
 .text          0x00000000        0x0 xcp_drv_rtiostream.c.o
 .data          0x00000000        0x0 xcp_drv_rtiostream.c.o
 .bss           0x00000000        0x0 xcp_drv_rtiostream.c.o
 .rodata.STREAM_OFFSET_TAB
                0x00000000        0x8 xcp_drv_rtiostream.c.o
 .rodata.XCP_RECEIVE_PACKET_TIMEOUT_IN_MICROSECONDS
                0x00000000        0x4 xcp_drv_rtiostream.c.o
 .rodata.XCP_RECEIVE_RETRY_TIME_IN_MICROSECONDS
                0x00000000        0x4 xcp_drv_rtiostream.c.o
 .rodata.XCP_SEND_PACKET_TIMEOUT_IN_MICROSECONDS
                0x00000000        0x4 xcp_drv_rtiostream.c.o
 .rodata.XCP_SEND_RETRY_TIME_IN_MICROSECONDS
                0x00000000        0x4 xcp_drv_rtiostream.c.o
 .text.xcpDrvRecvUnknownSize
                0x00000000       0xd0 xcp_drv_rtiostream.c.o
 .text          0x00000000        0x0 xcp_utils.c.o
 .data          0x00000000        0x0 xcp_utils.c.o
 .bss           0x00000000        0x0 xcp_utils.c.o
 .text          0x00000000        0x0 xcp_frame_serial.c.o
 .data          0x00000000        0x0 xcp_frame_serial.c.o
 .bss           0x00000000        0x0 xcp_frame_serial.c.o
 .rodata.STREAM_OFFSET_TAB
                0x00000000        0x8 xcp_frame_serial.c.o
 .text          0x00000000        0x0 xcp_ext_param_default_serial.c.o
 .data          0x00000000        0x0 xcp_ext_param_default_serial.c.o
 .bss           0x00000000        0x0 xcp_ext_param_default_serial.c.o
 .rodata.STREAM_OFFSET_TAB
                0x00000000        0x8 xcp_ext_param_default_serial.c.o
 .text.xcpExtModeParseArgs
                0x00000000       0x16 xcp_ext_param_default_serial.c.o
 .text          0x00000000        0x0 overrideHALDelay.c.o
 .data          0x00000000        0x0 overrideHALDelay.c.o
 .bss           0x00000000        0x0 overrideHALDelay.c.o
 .rodata.STREAM_OFFSET_TAB
                0x00000000        0x8 overrideHALDelay.c.o
 .text          0x00000000        0x0 platform_timer.c.o
 .data          0x00000000        0x0 platform_timer.c.o
 .bss           0x00000000        0x0 platform_timer.c.o
 .rodata.STREAM_OFFSET_TAB
                0x00000000        0x8 platform_timer.c.o
 .text          0x00000000        0x0 SysTickScheduler.c.o
 .data          0x00000000        0x0 SysTickScheduler.c.o
 .bss           0x00000000        0x0 SysTickScheduler.c.o
 .rodata.STREAM_OFFSET_TAB
                0x00000000        0x8 SysTickScheduler.c.o
 .text.ARMCM_SysTick_Stop
                0x00000000       0x20 SysTickScheduler.c.o
 .text          0x00000000        0x0 m3m4m4f_multitasking.c.o
 .data          0x00000000        0x0 m3m4m4f_multitasking.c.o
 .bss           0x00000000        0x0 m3m4m4f_multitasking.c.o
 .rodata.STREAM_OFFSET_TAB
                0x00000000        0x8 m3m4m4f_multitasking.c.o
 .text          0x00000000        0x0 rtiostream_serial.c.o
 .data          0x00000000        0x0 rtiostream_serial.c.o
 .bss           0x00000000        0x0 rtiostream_serial.c.o
 .rodata.STREAM_OFFSET_TAB
                0x00000000        0x8 rtiostream_serial.c.o
 .bss.UARTTxBuffer
                0x00000000        0x4 rtiostream_serial.c.o
 .text          0x00000000        0x0 stm_usart.c.o
 .data          0x00000000        0x0 stm_usart.c.o
 .bss           0x00000000        0x0 stm_usart.c.o
 .text.LL_DMA_SetMemoryAddress
                0x00000000       0x30 stm_usart.c.o
 .text.LL_USART_IsActiveFlag_RXNE
                0x00000000       0x26 stm_usart.c.o
 .text.LL_USART_EnableIT_TXE
                0x00000000       0x46 stm_usart.c.o
 .text.checkIfTransmitBufferFull
                0x00000000       0x64 stm_usart.c.o
 .text.copyToTransmitBuffer
                0x00000000       0xf4 stm_usart.c.o
 .text.UART_TXDMAInterruptHandler
                0x00000000      0x164 stm_usart.c.o
 .text.UART_IsActiveFlagRXNE
                0x00000000       0xca stm_usart.c.o
 .text.UART_IsActiveFlagTXE
                0x00000000       0x7a stm_usart.c.o
 .text.MW_UART_ReceiveUsingPolling
                0x00000000      0x17e stm_usart.c.o
 .text.MW_UART_TransmitUsingInterrupt
                0x00000000       0xd4 stm_usart.c.o
 .text.MW_UART_TransmitUsingDMA
                0x00000000       0xfc stm_usart.c.o
 .text          0x00000000        0x0 sys_arch_arm.c.o
 .data          0x00000000        0x0 sys_arch_arm.c.o
 .bss           0x00000000        0x0 sys_arch_arm.c.o
 .rodata.STREAM_OFFSET_TAB
                0x00000000        0x8 sys_arch_arm.c.o
 .text          0x00000000        0x0 main.c.o
 .data          0x00000000        0x0 main.c.o
 .bss           0x00000000        0x0 main.c.o
 .text          0x00000000        0x0 stm32f4xx_it.c.o
 .data          0x00000000        0x0 stm32f4xx_it.c.o
 .bss           0x00000000        0x0 stm32f4xx_it.c.o
 .rodata.STREAM_OFFSET_TAB
                0x00000000        0x8 stm32f4xx_it.c.o
 .text.SVC_Handler
                0x00000000        0xe stm32f4xx_it.c.o
 .text.PendSV_Handler
                0x00000000        0xe stm32f4xx_it.c.o
 .text.SysTick_Handler
                0x00000000        0xe stm32f4xx_it.c.o
 .text.DMA1_Stream5_IRQHandler
                0x00000000        0xe stm32f4xx_it.c.o
 .text          0x00000000        0x0 stm32f4xx_hal_msp.c.o
 .data          0x00000000        0x0 stm32f4xx_hal_msp.c.o
 .bss           0x00000000        0x0 stm32f4xx_hal_msp.c.o
 .rodata.STREAM_OFFSET_TAB
                0x00000000        0x8 stm32f4xx_hal_msp.c.o
 .text          0x00000000        0x0 stm32f4xx_hal_timebase_tim.c.o
 .data          0x00000000        0x0 stm32f4xx_hal_timebase_tim.c.o
 .bss           0x00000000        0x0 stm32f4xx_hal_timebase_tim.c.o
 .text.HAL_SuspendTick
                0x00000000       0x24 stm32f4xx_hal_timebase_tim.c.o
 .text.HAL_ResumeTick
                0x00000000       0x24 stm32f4xx_hal_timebase_tim.c.o
 .text          0x00000000        0x0 stm32f4xx_hal_tim.c.o
 .data          0x00000000        0x0 stm32f4xx_hal_tim.c.o
 .bss           0x00000000        0x0 stm32f4xx_hal_tim.c.o
 .text.HAL_TIM_Base_DeInit
                0x00000000       0xa8 stm32f4xx_hal_tim.c.o
 .text.HAL_TIM_Base_MspDeInit
                0x00000000       0x14 stm32f4xx_hal_tim.c.o
 .text.HAL_TIM_Base_Start
                0x00000000       0xd0 stm32f4xx_hal_tim.c.o
 .text.HAL_TIM_Base_Stop
                0x00000000       0x4e stm32f4xx_hal_tim.c.o
 .text.HAL_TIM_Base_Stop_IT
                0x00000000       0x5e stm32f4xx_hal_tim.c.o
 .text.HAL_TIM_Base_Start_DMA
                0x00000000      0x144 stm32f4xx_hal_tim.c.o
 .text.HAL_TIM_Base_Stop_DMA
                0x00000000       0x64 stm32f4xx_hal_tim.c.o
 .text.HAL_TIM_OC_Init
                0x00000000       0x9e stm32f4xx_hal_tim.c.o
 .text.HAL_TIM_OC_DeInit
                0x00000000       0xa8 stm32f4xx_hal_tim.c.o
 .text.HAL_TIM_OC_MspInit
                0x00000000       0x14 stm32f4xx_hal_tim.c.o
 .text.HAL_TIM_OC_MspDeInit
                0x00000000       0x14 stm32f4xx_hal_tim.c.o
 .text.HAL_TIM_OC_Start
                0x00000000      0x190 stm32f4xx_hal_tim.c.o
 .text.HAL_TIM_OC_Stop
                0x00000000       0xe0 stm32f4xx_hal_tim.c.o
 .text.HAL_TIM_OC_Start_IT
                0x00000000      0x22c stm32f4xx_hal_tim.c.o
 .text.HAL_TIM_OC_Stop_IT
                0x00000000      0x17c stm32f4xx_hal_tim.c.o
 .text.HAL_TIM_OC_Start_DMA
                0x00000000      0x390 stm32f4xx_hal_tim.c.o
 .text.HAL_TIM_OC_Stop_DMA
                0x00000000      0x1a4 stm32f4xx_hal_tim.c.o
 .text.HAL_TIM_PWM_Init
                0x00000000       0x9e stm32f4xx_hal_tim.c.o
 .text.HAL_TIM_PWM_DeInit
                0x00000000       0xa8 stm32f4xx_hal_tim.c.o
 .text.HAL_TIM_PWM_MspInit
                0x00000000       0x14 stm32f4xx_hal_tim.c.o
 .text.HAL_TIM_PWM_MspDeInit
                0x00000000       0x14 stm32f4xx_hal_tim.c.o
 .text.HAL_TIM_PWM_Start
                0x00000000      0x190 stm32f4xx_hal_tim.c.o
 .text.HAL_TIM_PWM_Stop
                0x00000000       0xe0 stm32f4xx_hal_tim.c.o
 .text.HAL_TIM_PWM_Start_IT
                0x00000000      0x22c stm32f4xx_hal_tim.c.o
 .text.HAL_TIM_PWM_Stop_IT
                0x00000000      0x17c stm32f4xx_hal_tim.c.o
 .text.HAL_TIM_PWM_Start_DMA
                0x00000000      0x390 stm32f4xx_hal_tim.c.o
 .text.HAL_TIM_PWM_Stop_DMA
                0x00000000      0x1a4 stm32f4xx_hal_tim.c.o
 .text.HAL_TIM_IC_Init
                0x00000000       0x9e stm32f4xx_hal_tim.c.o
 .text.HAL_TIM_IC_DeInit
                0x00000000       0xa8 stm32f4xx_hal_tim.c.o
 .text.HAL_TIM_IC_MspInit
                0x00000000       0x14 stm32f4xx_hal_tim.c.o
 .text.HAL_TIM_IC_MspDeInit
                0x00000000       0x14 stm32f4xx_hal_tim.c.o
 .text.HAL_TIM_IC_Start
                0x00000000      0x1b8 stm32f4xx_hal_tim.c.o
 .text.HAL_TIM_IC_Stop
                0x00000000       0xc2 stm32f4xx_hal_tim.c.o
 .text.HAL_TIM_IC_Start_IT
                0x00000000      0x250 stm32f4xx_hal_tim.c.o
 .text.HAL_TIM_IC_Stop_IT
                0x00000000      0x15c stm32f4xx_hal_tim.c.o
 .text.HAL_TIM_IC_Start_DMA
                0x00000000      0x354 stm32f4xx_hal_tim.c.o
 .text.HAL_TIM_IC_Stop_DMA
                0x00000000      0x184 stm32f4xx_hal_tim.c.o
 .text.HAL_TIM_OnePulse_Init
                0x00000000       0xa0 stm32f4xx_hal_tim.c.o
 .text.HAL_TIM_OnePulse_DeInit
                0x00000000       0x88 stm32f4xx_hal_tim.c.o
 .text.HAL_TIM_OnePulse_MspInit
                0x00000000       0x14 stm32f4xx_hal_tim.c.o
 .text.HAL_TIM_OnePulse_MspDeInit
                0x00000000       0x14 stm32f4xx_hal_tim.c.o
 .text.HAL_TIM_OnePulse_Start
                0x00000000       0xc4 stm32f4xx_hal_tim.c.o
 .text.HAL_TIM_OnePulse_Stop
                0x00000000       0xd8 stm32f4xx_hal_tim.c.o
 .text.HAL_TIM_OnePulse_Start_IT
                0x00000000       0xe4 stm32f4xx_hal_tim.c.o
 .text.HAL_TIM_OnePulse_Stop_IT
                0x00000000       0xf8 stm32f4xx_hal_tim.c.o
 .text.HAL_TIM_Encoder_Init
                0x00000000      0x14c stm32f4xx_hal_tim.c.o
 .text.HAL_TIM_Encoder_DeInit
                0x00000000       0x88 stm32f4xx_hal_tim.c.o
 .text.HAL_TIM_Encoder_MspInit
                0x00000000       0x14 stm32f4xx_hal_tim.c.o
 .text.HAL_TIM_Encoder_MspDeInit
                0x00000000       0x14 stm32f4xx_hal_tim.c.o
 .text.HAL_TIM_Encoder_Start
                0x00000000      0x11c stm32f4xx_hal_tim.c.o
 .text.HAL_TIM_Encoder_Stop
                0x00000000      0x12e stm32f4xx_hal_tim.c.o
 .text.HAL_TIM_Encoder_Start_IT
                0x00000000      0x15c stm32f4xx_hal_tim.c.o
 .text.HAL_TIM_Encoder_Stop_IT
                0x00000000      0x16a stm32f4xx_hal_tim.c.o
 .text.HAL_TIM_Encoder_Start_DMA
                0x00000000      0x2d8 stm32f4xx_hal_tim.c.o
 .text.HAL_TIM_Encoder_Stop_DMA
                0x00000000      0x192 stm32f4xx_hal_tim.c.o
 .text.HAL_TIM_OC_ConfigChannel
                0x00000000       0xb8 stm32f4xx_hal_tim.c.o
 .text.HAL_TIM_IC_ConfigChannel
                0x00000000      0x138 stm32f4xx_hal_tim.c.o
 .text.HAL_TIM_PWM_ConfigChannel
                0x00000000      0x184 stm32f4xx_hal_tim.c.o
 .text.HAL_TIM_OnePulse_ConfigChannel
                0x00000000      0x1a4 stm32f4xx_hal_tim.c.o
 .text.HAL_TIM_DMABurst_WriteStart
                0x00000000       0x34 stm32f4xx_hal_tim.c.o
 .text.HAL_TIM_DMABurst_MultiWriteStart
                0x00000000      0x2a8 stm32f4xx_hal_tim.c.o
 .text.HAL_TIM_DMABurst_WriteStop
                0x00000000       0xf4 stm32f4xx_hal_tim.c.o
 .text.HAL_TIM_DMABurst_ReadStart
                0x00000000       0x34 stm32f4xx_hal_tim.c.o
 .text.HAL_TIM_DMABurst_MultiReadStart
                0x00000000      0x2a8 stm32f4xx_hal_tim.c.o
 .text.HAL_TIM_DMABurst_ReadStop
                0x00000000       0xf4 stm32f4xx_hal_tim.c.o
 .text.HAL_TIM_GenerateEvent
                0x00000000       0x4e stm32f4xx_hal_tim.c.o
 .text.HAL_TIM_ConfigOCrefClear
                0x00000000      0x198 stm32f4xx_hal_tim.c.o
 .text.HAL_TIM_ConfigClockSource
                0x00000000      0x18e stm32f4xx_hal_tim.c.o
 .text.HAL_TIM_ConfigTI1Input
                0x00000000       0x38 stm32f4xx_hal_tim.c.o
 .text.HAL_TIM_SlaveConfigSynchro
                0x00000000       0x84 stm32f4xx_hal_tim.c.o
 .text.HAL_TIM_SlaveConfigSynchro_IT
                0x00000000       0x84 stm32f4xx_hal_tim.c.o
 .text.HAL_TIM_ReadCapturedValue
                0x00000000       0x88 stm32f4xx_hal_tim.c.o
 .text.HAL_TIM_PeriodElapsedCallback
                0x00000000       0x14 stm32f4xx_hal_tim.c.o
 .text.HAL_TIM_PeriodElapsedHalfCpltCallback
                0x00000000       0x14 stm32f4xx_hal_tim.c.o
 .text.HAL_TIM_IC_CaptureHalfCpltCallback
                0x00000000       0x14 stm32f4xx_hal_tim.c.o
 .text.HAL_TIM_PWM_PulseFinishedHalfCpltCallback
                0x00000000       0x14 stm32f4xx_hal_tim.c.o
 .text.HAL_TIM_TriggerHalfCpltCallback
                0x00000000       0x14 stm32f4xx_hal_tim.c.o
 .text.HAL_TIM_ErrorCallback
                0x00000000       0x14 stm32f4xx_hal_tim.c.o
 .text.HAL_TIM_Base_GetState
                0x00000000       0x1c stm32f4xx_hal_tim.c.o
 .text.HAL_TIM_OC_GetState
                0x00000000       0x1c stm32f4xx_hal_tim.c.o
 .text.HAL_TIM_PWM_GetState
                0x00000000       0x1c stm32f4xx_hal_tim.c.o
 .text.HAL_TIM_IC_GetState
                0x00000000       0x1c stm32f4xx_hal_tim.c.o
 .text.HAL_TIM_OnePulse_GetState
                0x00000000       0x1c stm32f4xx_hal_tim.c.o
 .text.HAL_TIM_Encoder_GetState
                0x00000000       0x1c stm32f4xx_hal_tim.c.o
 .text.HAL_TIM_GetActiveChannel
                0x00000000       0x18 stm32f4xx_hal_tim.c.o
 .text.HAL_TIM_GetChannelState
                0x00000000       0x52 stm32f4xx_hal_tim.c.o
 .text.HAL_TIM_DMABurstState
                0x00000000       0x1c stm32f4xx_hal_tim.c.o
 .text.TIM_DMAError
                0x00000000       0x92 stm32f4xx_hal_tim.c.o
 .text.TIM_DMADelayPulseCplt
                0x00000000       0xa8 stm32f4xx_hal_tim.c.o
 .text.TIM_DMADelayPulseHalfCplt
                0x00000000       0x68 stm32f4xx_hal_tim.c.o
 .text.TIM_DMACaptureCplt
                0x00000000       0xc8 stm32f4xx_hal_tim.c.o
 .text.TIM_DMACaptureHalfCplt
                0x00000000       0x68 stm32f4xx_hal_tim.c.o
 .text.TIM_DMAPeriodElapsedCplt
                0x00000000       0x2e stm32f4xx_hal_tim.c.o
 .text.TIM_DMAPeriodElapsedHalfCplt
                0x00000000       0x1c stm32f4xx_hal_tim.c.o
 .text.TIM_DMATriggerCplt
                0x00000000       0x2e stm32f4xx_hal_tim.c.o
 .text.TIM_DMATriggerHalfCplt
                0x00000000       0x1c stm32f4xx_hal_tim.c.o
 .text.TIM_OC1_SetConfig
                0x00000000       0xe0 stm32f4xx_hal_tim.c.o
 .text.TIM_OC2_SetConfig
                0x00000000       0xec stm32f4xx_hal_tim.c.o
 .text.TIM_OC3_SetConfig
                0x00000000       0xe8 stm32f4xx_hal_tim.c.o
 .text.TIM_OC4_SetConfig
                0x00000000       0xac stm32f4xx_hal_tim.c.o
 .text.TIM_SlaveTimer_SetConfig
                0x00000000      0x122 stm32f4xx_hal_tim.c.o
 .text.TIM_TI1_SetConfig
                0x00000000       0xe8 stm32f4xx_hal_tim.c.o
 .text.TIM_TI1_ConfigInputStage
                0x00000000       0x5e stm32f4xx_hal_tim.c.o
 .text.TIM_TI2_SetConfig
                0x00000000       0x7a stm32f4xx_hal_tim.c.o
 .text.TIM_TI2_ConfigInputStage
                0x00000000       0x60 stm32f4xx_hal_tim.c.o
 .text.TIM_TI3_SetConfig
                0x00000000       0x78 stm32f4xx_hal_tim.c.o
 .text.TIM_TI4_SetConfig
                0x00000000       0x7a stm32f4xx_hal_tim.c.o
 .text.TIM_ITRx_SetConfig
                0x00000000       0x36 stm32f4xx_hal_tim.c.o
 .text.TIM_ETR_SetConfig
                0x00000000       0x40 stm32f4xx_hal_tim.c.o
 .text.TIM_CCxChannelCmd
                0x00000000       0x4a stm32f4xx_hal_tim.c.o
 .text          0x00000000        0x0 stm32f4xx_hal_tim_ex.c.o
 .data          0x00000000        0x0 stm32f4xx_hal_tim_ex.c.o
 .bss           0x00000000        0x0 stm32f4xx_hal_tim_ex.c.o
 .text.HAL_TIMEx_HallSensor_Init
                0x00000000      0x152 stm32f4xx_hal_tim_ex.c.o
 .text.HAL_TIMEx_HallSensor_DeInit
                0x00000000       0x88 stm32f4xx_hal_tim_ex.c.o
 .text.HAL_TIMEx_HallSensor_MspInit
                0x00000000       0x14 stm32f4xx_hal_tim_ex.c.o
 .text.HAL_TIMEx_HallSensor_MspDeInit
                0x00000000       0x14 stm32f4xx_hal_tim_ex.c.o
 .text.HAL_TIMEx_HallSensor_Start
                0x00000000      0x11c stm32f4xx_hal_tim_ex.c.o
 .text.HAL_TIMEx_HallSensor_Stop
                0x00000000       0x70 stm32f4xx_hal_tim_ex.c.o
 .text.HAL_TIMEx_HallSensor_Start_IT
                0x00000000      0x12c stm32f4xx_hal_tim_ex.c.o
 .text.HAL_TIMEx_HallSensor_Stop_IT
                0x00000000       0x80 stm32f4xx_hal_tim_ex.c.o
 .text.HAL_TIMEx_HallSensor_Start_DMA
                0x00000000      0x16c stm32f4xx_hal_tim_ex.c.o
 .text.HAL_TIMEx_HallSensor_Stop_DMA
                0x00000000       0x7a stm32f4xx_hal_tim_ex.c.o
 .text.HAL_TIMEx_OCN_Start
                0x00000000      0x174 stm32f4xx_hal_tim_ex.c.o
 .text.HAL_TIMEx_OCN_Stop
                0x00000000       0xba stm32f4xx_hal_tim_ex.c.o
 .text.HAL_TIMEx_OCN_Start_IT
                0x00000000      0x1e4 stm32f4xx_hal_tim_ex.c.o
 .text.HAL_TIMEx_OCN_Stop_IT
                0x00000000      0x13e stm32f4xx_hal_tim_ex.c.o
 .text.HAL_TIMEx_OCN_Start_DMA
                0x00000000      0x300 stm32f4xx_hal_tim_ex.c.o
 .text.HAL_TIMEx_OCN_Stop_DMA
                0x00000000      0x138 stm32f4xx_hal_tim_ex.c.o
 .text.HAL_TIMEx_PWMN_Start
                0x00000000      0x174 stm32f4xx_hal_tim_ex.c.o
 .text.HAL_TIMEx_PWMN_Stop
                0x00000000       0xba stm32f4xx_hal_tim_ex.c.o
 .text.HAL_TIMEx_PWMN_Start_IT
                0x00000000      0x1e4 stm32f4xx_hal_tim_ex.c.o
 .text.HAL_TIMEx_PWMN_Stop_IT
                0x00000000      0x13e stm32f4xx_hal_tim_ex.c.o
 .text.HAL_TIMEx_PWMN_Start_DMA
                0x00000000      0x300 stm32f4xx_hal_tim_ex.c.o
 .text.HAL_TIMEx_PWMN_Stop_DMA
                0x00000000      0x138 stm32f4xx_hal_tim_ex.c.o
 .text.HAL_TIMEx_OnePulseN_Start
                0x00000000       0xaa stm32f4xx_hal_tim_ex.c.o
 .text.HAL_TIMEx_OnePulseN_Stop
                0x00000000       0xbe stm32f4xx_hal_tim_ex.c.o
 .text.HAL_TIMEx_OnePulseN_Start_IT
                0x00000000       0xca stm32f4xx_hal_tim_ex.c.o
 .text.HAL_TIMEx_OnePulseN_Stop_IT
                0x00000000       0xde stm32f4xx_hal_tim_ex.c.o
 .text.HAL_TIMEx_ConfigCommutEvent
                0x00000000       0xc0 stm32f4xx_hal_tim_ex.c.o
 .text.HAL_TIMEx_ConfigCommutEvent_IT
                0x00000000       0xc0 stm32f4xx_hal_tim_ex.c.o
 .text.HAL_TIMEx_ConfigCommutEvent_DMA
                0x00000000       0xe4 stm32f4xx_hal_tim_ex.c.o
 .text.HAL_TIMEx_MasterConfigSynchronization
                0x00000000       0xf8 stm32f4xx_hal_tim_ex.c.o
 .text.HAL_TIMEx_ConfigBreakDeadTime
                0x00000000       0xa4 stm32f4xx_hal_tim_ex.c.o
 .text.HAL_TIMEx_RemapConfig
                0x00000000       0x3e stm32f4xx_hal_tim_ex.c.o
 .text.HAL_TIMEx_CommutHalfCpltCallback
                0x00000000       0x14 stm32f4xx_hal_tim_ex.c.o
 .text.HAL_TIMEx_HallSensor_GetState
                0x00000000       0x1c stm32f4xx_hal_tim_ex.c.o
 .text.HAL_TIMEx_GetChannelNState
                0x00000000       0x52 stm32f4xx_hal_tim_ex.c.o
 .text.TIMEx_DMACommutationCplt
                0x00000000       0x24 stm32f4xx_hal_tim_ex.c.o
 .text.TIMEx_DMACommutationHalfCplt
                0x00000000       0x24 stm32f4xx_hal_tim_ex.c.o
 .text.TIM_DMADelayPulseNCplt
                0x00000000       0x86 stm32f4xx_hal_tim_ex.c.o
 .text.TIM_DMAErrorCCxN
                0x00000000       0x6e stm32f4xx_hal_tim_ex.c.o
 .text.TIM_CCxNChannelCmd
                0x00000000       0x4a stm32f4xx_hal_tim_ex.c.o
 .text          0x00000000        0x0 stm32f4xx_ll_gpio.c.o
 .data          0x00000000        0x0 stm32f4xx_ll_gpio.c.o
 .bss           0x00000000        0x0 stm32f4xx_ll_gpio.c.o
 .text.LL_AHB1_GRP1_ForceReset
                0x00000000       0x24 stm32f4xx_ll_gpio.c.o
 .text.LL_AHB1_GRP1_ReleaseReset
                0x00000000       0x28 stm32f4xx_ll_gpio.c.o
 .text.LL_GPIO_DeInit
                0x00000000       0xec stm32f4xx_ll_gpio.c.o
 .text.LL_GPIO_StructInit
                0x00000000       0x3a stm32f4xx_ll_gpio.c.o
 .text          0x00000000        0x0 stm32f4xx_ll_dma.c.o
 .data          0x00000000        0x0 stm32f4xx_ll_dma.c.o
 .bss           0x00000000        0x0 stm32f4xx_ll_dma.c.o
 .rodata.STREAM_OFFSET_TAB
                0x00000000        0x8 stm32f4xx_ll_dma.c.o
 .text.LL_DMA_DisableStream
                0x00000000       0x40 stm32f4xx_ll_dma.c.o
 .text.LL_DMA_ConfigTransfer
                0x00000000       0x4c stm32f4xx_ll_dma.c.o
 .text.LL_DMA_SetDataLength
                0x00000000       0x48 stm32f4xx_ll_dma.c.o
 .text.LL_DMA_SetChannelSelection
                0x00000000       0x48 stm32f4xx_ll_dma.c.o
 .text.LL_DMA_SetMemoryBurstxfer
                0x00000000       0x48 stm32f4xx_ll_dma.c.o
 .text.LL_DMA_SetPeriphBurstxfer
                0x00000000       0x48 stm32f4xx_ll_dma.c.o
 .text.LL_DMA_ConfigFifo
                0x00000000       0x4c stm32f4xx_ll_dma.c.o
 .text.LL_DMA_SetMemoryAddress
                0x00000000       0x30 stm32f4xx_ll_dma.c.o
 .text.LL_DMA_SetPeriphAddress
                0x00000000       0x30 stm32f4xx_ll_dma.c.o
 .text.LL_AHB1_GRP1_ForceReset
                0x00000000       0x24 stm32f4xx_ll_dma.c.o
 .text.LL_AHB1_GRP1_ReleaseReset
                0x00000000       0x28 stm32f4xx_ll_dma.c.o
 .text.LL_DMA_DeInit
                0x00000000      0x290 stm32f4xx_ll_dma.c.o
 .text.LL_DMA_Init
                0x00000000       0xb4 stm32f4xx_ll_dma.c.o
 .text.LL_DMA_StructInit
                0x00000000       0x6e stm32f4xx_ll_dma.c.o
 .debug_info    0x00000000      0x7b3 stm32f4xx_ll_dma.c.o
 .debug_abbrev  0x00000000      0x1b4 stm32f4xx_ll_dma.c.o
 .debug_aranges
                0x00000000       0x88 stm32f4xx_ll_dma.c.o
 .debug_rnglists
                0x00000000       0x63 stm32f4xx_ll_dma.c.o
 .debug_line    0x00000000      0x599 stm32f4xx_ll_dma.c.o
 .debug_str     0x00000000      0x649 stm32f4xx_ll_dma.c.o
 .comment       0x00000000       0x45 stm32f4xx_ll_dma.c.o
 .debug_frame   0x00000000      0x23c stm32f4xx_ll_dma.c.o
 .ARM.attributes
                0x00000000       0x34 stm32f4xx_ll_dma.c.o
 .text          0x00000000        0x0 stm32f4xx_ll_spi.c.o
 .data          0x00000000        0x0 stm32f4xx_ll_spi.c.o
 .bss           0x00000000        0x0 stm32f4xx_ll_spi.c.o
 .text.LL_I2S_IsEnabled
                0x00000000       0x28 stm32f4xx_ll_spi.c.o
 .text.LL_APB1_GRP1_ForceReset
                0x00000000       0x24 stm32f4xx_ll_spi.c.o
 .text.LL_APB1_GRP1_ReleaseReset
                0x00000000       0x28 stm32f4xx_ll_spi.c.o
 .text.LL_APB2_GRP1_ForceReset
                0x00000000       0x24 stm32f4xx_ll_spi.c.o
 .text.LL_APB2_GRP1_ReleaseReset
                0x00000000       0x28 stm32f4xx_ll_spi.c.o
 .text.LL_SPI_DeInit
                0x00000000       0x98 stm32f4xx_ll_spi.c.o
 .text.LL_SPI_StructInit
                0x00000000       0x50 stm32f4xx_ll_spi.c.o
 .text.LL_I2S_DeInit
                0x00000000       0x18 stm32f4xx_ll_spi.c.o
 .text.LL_I2S_Init
                0x00000000      0x110 stm32f4xx_ll_spi.c.o
 .text.LL_I2S_StructInit
                0x00000000       0x38 stm32f4xx_ll_spi.c.o
 .text.LL_I2S_ConfigPrescaler
                0x00000000       0x32 stm32f4xx_ll_spi.c.o
 .text          0x00000000        0x0 stm32f4xx_ll_rcc.c.o
 .data          0x00000000        0x0 stm32f4xx_ll_rcc.c.o
 .bss           0x00000000        0x0 stm32f4xx_ll_rcc.c.o
 .text.LL_RCC_HSE_IsReady
                0x00000000       0x28 stm32f4xx_ll_rcc.c.o
 .text.LL_RCC_HSI_Enable
                0x00000000       0x20 stm32f4xx_ll_rcc.c.o
 .text.LL_RCC_HSI_IsReady
                0x00000000       0x24 stm32f4xx_ll_rcc.c.o
 .text.LL_RCC_HSI_SetCalibTrimming
                0x00000000       0x2c stm32f4xx_ll_rcc.c.o
 .text.LL_RCC_LSE_IsReady
                0x00000000       0x24 stm32f4xx_ll_rcc.c.o
 .text.LL_RCC_GetFMPI2CClockSource
                0x00000000       0x24 stm32f4xx_ll_rcc.c.o
 .text.LL_RCC_GetSAIClockSource
                0x00000000       0x28 stm32f4xx_ll_rcc.c.o
 .text.LL_RCC_GetSDIOClockSource
                0x00000000       0x24 stm32f4xx_ll_rcc.c.o
 .text.LL_RCC_GetCK48MClockSource
                0x00000000       0x24 stm32f4xx_ll_rcc.c.o
 .text.LL_RCC_GetUSBClockSource
                0x00000000       0x24 stm32f4xx_ll_rcc.c.o
 .text.LL_RCC_GetCECClockSource
                0x00000000       0x24 stm32f4xx_ll_rcc.c.o
 .text.LL_RCC_GetI2SClockSource
                0x00000000       0x28 stm32f4xx_ll_rcc.c.o
 .text.LL_RCC_GetSPDIFRXClockSource
                0x00000000       0x24 stm32f4xx_ll_rcc.c.o
 .text.LL_RCC_PLL_IsReady
                0x00000000       0x28 stm32f4xx_ll_rcc.c.o
 .text.LL_RCC_PLL_GetQ
                0x00000000       0x1c stm32f4xx_ll_rcc.c.o
 .text.LL_RCC_PLLI2S_IsReady
                0x00000000       0x28 stm32f4xx_ll_rcc.c.o
 .text.LL_RCC_PLLI2S_GetN
                0x00000000       0x20 stm32f4xx_ll_rcc.c.o
 .text.LL_RCC_PLLI2S_GetQ
                0x00000000       0x1c stm32f4xx_ll_rcc.c.o
 .text.LL_RCC_PLLI2S_GetR
                0x00000000       0x1c stm32f4xx_ll_rcc.c.o
 .text.LL_RCC_PLLI2S_GetP
                0x00000000       0x1c stm32f4xx_ll_rcc.c.o
 .text.LL_RCC_PLLI2S_GetDIVQ
                0x00000000       0x1c stm32f4xx_ll_rcc.c.o
 .text.LL_RCC_PLLI2S_GetDivider
                0x00000000       0x1c stm32f4xx_ll_rcc.c.o
 .text.LL_RCC_PLLI2S_GetMainSource
                0x00000000       0x1c stm32f4xx_ll_rcc.c.o
 .text.LL_RCC_PLLSAI_IsReady
                0x00000000       0x28 stm32f4xx_ll_rcc.c.o
 .text.LL_RCC_PLLSAI_GetDivider
                0x00000000       0x1c stm32f4xx_ll_rcc.c.o
 .text.LL_RCC_PLLSAI_GetN
                0x00000000       0x20 stm32f4xx_ll_rcc.c.o
 .text.LL_RCC_PLLSAI_GetQ
                0x00000000       0x1c stm32f4xx_ll_rcc.c.o
 .text.LL_RCC_PLLSAI_GetP
                0x00000000       0x1c stm32f4xx_ll_rcc.c.o
 .text.LL_RCC_PLLSAI_GetDIVQ
                0x00000000       0x1c stm32f4xx_ll_rcc.c.o
 .text.LL_RCC_DeInit
                0x00000000       0xe4 stm32f4xx_ll_rcc.c.o
 .text.LL_RCC_GetFMPI2CClockFreq
                0x00000000       0x6c stm32f4xx_ll_rcc.c.o
 .text.LL_RCC_GetI2SClockFreq
                0x00000000      0x140 stm32f4xx_ll_rcc.c.o
 .text.LL_RCC_GetSAIClockFreq
                0x00000000      0x110 stm32f4xx_ll_rcc.c.o
 .text.LL_RCC_GetSDIOClockFreq
                0x00000000       0x6c stm32f4xx_ll_rcc.c.o
 .text.LL_RCC_GetCECClockFreq
                0x00000000       0x4e stm32f4xx_ll_rcc.c.o
 .text.LL_RCC_GetUSBClockFreq
                0x00000000       0x4e stm32f4xx_ll_rcc.c.o
 .text.LL_RCC_GetSPDIFRXClockFreq
                0x00000000       0x4e stm32f4xx_ll_rcc.c.o
 .text.RCC_PLL_GetFreqDomain_48M
                0x00000000       0x68 stm32f4xx_ll_rcc.c.o
 .text.RCC_PLL_GetFreqDomain_I2S
                0x00000000       0x5c stm32f4xx_ll_rcc.c.o
 .text.RCC_PLL_GetFreqDomain_SPDIFRX
                0x00000000       0x5c stm32f4xx_ll_rcc.c.o
 .text.RCC_PLL_GetFreqDomain_SAI
                0x00000000       0x64 stm32f4xx_ll_rcc.c.o
 .text.RCC_PLLSAI_GetFreqDomain_SAI
                0x00000000       0x78 stm32f4xx_ll_rcc.c.o
 .text.RCC_PLLSAI_GetFreqDomain_48M
                0x00000000       0x6c stm32f4xx_ll_rcc.c.o
 .text.RCC_PLLI2S_GetFreqDomain_SAI
                0x00000000       0x70 stm32f4xx_ll_rcc.c.o
 .text.RCC_PLLI2S_GetFreqDomain_SPDIFRX
                0x00000000       0x60 stm32f4xx_ll_rcc.c.o
 .text.RCC_PLLI2S_GetFreqDomain_I2S
                0x00000000       0x64 stm32f4xx_ll_rcc.c.o
 .text          0x00000000        0x0 stm32f4xx_ll_utils.c.o
 .data          0x00000000        0x0 stm32f4xx_ll_utils.c.o
 .bss           0x00000000        0x0 stm32f4xx_ll_utils.c.o
 .text.LL_InitTick
                0x00000000       0x34 stm32f4xx_ll_utils.c.o
 .text.LL_RCC_HSE_EnableBypass
                0x00000000       0x20 stm32f4xx_ll_utils.c.o
 .text.LL_RCC_HSE_DisableBypass
                0x00000000       0x20 stm32f4xx_ll_utils.c.o
 .text.LL_RCC_HSE_Enable
                0x00000000       0x20 stm32f4xx_ll_utils.c.o
 .text.LL_RCC_HSE_IsReady
                0x00000000       0x28 stm32f4xx_ll_utils.c.o
 .text.LL_RCC_HSI_Enable
                0x00000000       0x20 stm32f4xx_ll_utils.c.o
 .text.LL_RCC_HSI_IsReady
                0x00000000       0x24 stm32f4xx_ll_utils.c.o
 .text.LL_RCC_SetSysClkSource
                0x00000000       0x28 stm32f4xx_ll_utils.c.o
 .text.LL_RCC_GetSysClkSource
                0x00000000       0x1c stm32f4xx_ll_utils.c.o
 .text.LL_RCC_SetAHBPrescaler
                0x00000000       0x28 stm32f4xx_ll_utils.c.o
 .text.LL_RCC_SetAPB1Prescaler
                0x00000000       0x28 stm32f4xx_ll_utils.c.o
 .text.LL_RCC_SetAPB2Prescaler
                0x00000000       0x28 stm32f4xx_ll_utils.c.o
 .text.LL_RCC_PLL_Enable
                0x00000000       0x20 stm32f4xx_ll_utils.c.o
 .text.LL_RCC_PLL_IsReady
                0x00000000       0x28 stm32f4xx_ll_utils.c.o
 .text.LL_RCC_PLL_ConfigDomain_SYS
                0x00000000       0x5c stm32f4xx_ll_utils.c.o
 .text.LL_RCC_PLLI2S_IsReady
                0x00000000       0x28 stm32f4xx_ll_utils.c.o
 .text.LL_RCC_PLLSAI_IsReady
                0x00000000       0x28 stm32f4xx_ll_utils.c.o
 .text.LL_FLASH_SetLatency
                0x00000000       0x28 stm32f4xx_ll_utils.c.o
 .text.LL_FLASH_GetLatency
                0x00000000       0x1c stm32f4xx_ll_utils.c.o
 .text.LL_PWR_GetRegulVoltageScaling
                0x00000000       0x1c stm32f4xx_ll_utils.c.o
 .text.LL_Init1msTick
                0x00000000       0x1a stm32f4xx_ll_utils.c.o
 .text.LL_mDelay
                0x00000000       0x4c stm32f4xx_ll_utils.c.o
 .text.LL_SetFlashLatency
                0x00000000      0x184 stm32f4xx_ll_utils.c.o
 .text.LL_PLL_ConfigSystemClock_HSI
                0x00000000       0x74 stm32f4xx_ll_utils.c.o
 .text.LL_PLL_ConfigSystemClock_HSE
                0x00000000       0x84 stm32f4xx_ll_utils.c.o
 .text.UTILS_GetPLLOutputFrequency
                0x00000000       0x4e stm32f4xx_ll_utils.c.o
 .text.UTILS_PLL_IsBusy
                0x00000000       0x3e stm32f4xx_ll_utils.c.o
 .text.UTILS_EnablePLLAndSwitchSystem
                0x00000000       0xb4 stm32f4xx_ll_utils.c.o
 .text          0x00000000        0x0 stm32f4xx_ll_exti.c.o
 .data          0x00000000        0x0 stm32f4xx_ll_exti.c.o
 .bss           0x00000000        0x0 stm32f4xx_ll_exti.c.o
 .text.LL_EXTI_DeInit
                0x00000000       0x3c stm32f4xx_ll_exti.c.o
 .text.LL_EXTI_StructInit
                0x00000000       0x2c stm32f4xx_ll_exti.c.o
 .text          0x00000000        0x0 stm32f4xx_hal_rcc.c.o
 .data          0x00000000        0x0 stm32f4xx_hal_rcc.c.o
 .bss           0x00000000        0x0 stm32f4xx_hal_rcc.c.o
 .text.HAL_RCC_DeInit
                0x00000000       0x10 stm32f4xx_hal_rcc.c.o
 .text.HAL_RCC_OscConfig
                0x00000000      0x500 stm32f4xx_hal_rcc.c.o
 .text.HAL_RCC_ClockConfig
                0x00000000      0x1cc stm32f4xx_hal_rcc.c.o
 .text.HAL_RCC_MCOConfig
                0x00000000       0xd0 stm32f4xx_hal_rcc.c.o
 .text.HAL_RCC_EnableCSS
                0x00000000       0x18 stm32f4xx_hal_rcc.c.o
 .text.HAL_RCC_DisableCSS
                0x00000000       0x18 stm32f4xx_hal_rcc.c.o
 .text.HAL_RCC_GetSysClockFreq
                0x00000000      0x20c stm32f4xx_hal_rcc.c.o
 .text.HAL_RCC_GetPCLK2Freq
                0x00000000       0x28 stm32f4xx_hal_rcc.c.o
 .text.HAL_RCC_GetOscConfig
                0x00000000      0x128 stm32f4xx_hal_rcc.c.o
 .text.HAL_RCC_NMI_IRQHandler
                0x00000000       0x28 stm32f4xx_hal_rcc.c.o
 .text.HAL_RCC_CSSCallback
                0x00000000        0xe stm32f4xx_hal_rcc.c.o
 .text          0x00000000        0x0 stm32f4xx_hal_rcc_ex.c.o
 .data          0x00000000        0x0 stm32f4xx_hal_rcc_ex.c.o
 .bss           0x00000000        0x0 stm32f4xx_hal_rcc_ex.c.o
 .text.HAL_RCCEx_PeriphCLKConfig
                0x00000000      0x654 stm32f4xx_hal_rcc_ex.c.o
 .text.HAL_RCCEx_GetPeriphCLKConfig
                0x00000000      0x18c stm32f4xx_hal_rcc_ex.c.o
 .text.HAL_RCCEx_GetPeriphCLKFreq
                0x00000000      0x494 stm32f4xx_hal_rcc_ex.c.o
 .text.HAL_RCCEx_SelectLSEMode
                0x00000000       0x3c stm32f4xx_hal_rcc_ex.c.o
 .text.HAL_RCCEx_EnablePLLI2S
                0x00000000       0xa0 stm32f4xx_hal_rcc_ex.c.o
 .text.HAL_RCCEx_DisablePLLI2S
                0x00000000       0x44 stm32f4xx_hal_rcc_ex.c.o
 .text.HAL_RCCEx_EnablePLLSAI
                0x00000000       0x9c stm32f4xx_hal_rcc_ex.c.o
 .text.HAL_RCCEx_DisablePLLSAI
                0x00000000       0x48 stm32f4xx_hal_rcc_ex.c.o
 .text.HAL_RCC_GetSysClockFreq
                0x00000000      0x460 stm32f4xx_hal_rcc_ex.c.o
 .text.HAL_RCC_DeInit
                0x00000000      0x1f0 stm32f4xx_hal_rcc_ex.c.o
 .text.HAL_RCC_OscConfig
                0x00000000      0x53c stm32f4xx_hal_rcc_ex.c.o
 .text.HAL_RCC_GetOscConfig
                0x00000000      0x138 stm32f4xx_hal_rcc_ex.c.o
 .debug_info    0x00000000      0x952 stm32f4xx_hal_rcc_ex.c.o
 .debug_abbrev  0x00000000      0x208 stm32f4xx_hal_rcc_ex.c.o
 .debug_aranges
                0x00000000       0x78 stm32f4xx_hal_rcc_ex.c.o
 .debug_rnglists
                0x00000000       0x5e stm32f4xx_hal_rcc_ex.c.o
 .debug_line    0x00000000     0x1099 stm32f4xx_hal_rcc_ex.c.o
 .debug_str     0x00000000      0x855 stm32f4xx_hal_rcc_ex.c.o
 .comment       0x00000000       0x45 stm32f4xx_hal_rcc_ex.c.o
 .debug_frame   0x00000000      0x1e8 stm32f4xx_hal_rcc_ex.c.o
 .ARM.attributes
                0x00000000       0x34 stm32f4xx_hal_rcc_ex.c.o
 .text          0x00000000        0x0 stm32f4xx_hal_flash.c.o
 .data          0x00000000        0x0 stm32f4xx_hal_flash.c.o
 .bss           0x00000000        0x0 stm32f4xx_hal_flash.c.o
 .bss.pFlash    0x00000000       0x20 stm32f4xx_hal_flash.c.o
 .text.HAL_FLASH_Program
                0x00000000       0xa8 stm32f4xx_hal_flash.c.o
 .text.HAL_FLASH_Program_IT
                0x00000000       0x9c stm32f4xx_hal_flash.c.o
 .text.HAL_FLASH_IRQHandler
                0x00000000      0x140 stm32f4xx_hal_flash.c.o
 .text.HAL_FLASH_EndOfOperationCallback
                0x00000000       0x14 stm32f4xx_hal_flash.c.o
 .text.HAL_FLASH_OperationErrorCallback
                0x00000000       0x14 stm32f4xx_hal_flash.c.o
 .text.HAL_FLASH_Unlock
                0x00000000       0x44 stm32f4xx_hal_flash.c.o
 .text.HAL_FLASH_Lock
                0x00000000       0x20 stm32f4xx_hal_flash.c.o
 .text.HAL_FLASH_OB_Unlock
                0x00000000       0x38 stm32f4xx_hal_flash.c.o
 .text.HAL_FLASH_OB_Lock
                0x00000000       0x20 stm32f4xx_hal_flash.c.o
 .text.HAL_FLASH_OB_Launch
                0x00000000       0x28 stm32f4xx_hal_flash.c.o
 .text.HAL_FLASH_GetError
                0x00000000       0x18 stm32f4xx_hal_flash.c.o
 .text.FLASH_WaitForLastOperation
                0x00000000       0x80 stm32f4xx_hal_flash.c.o
 .text.FLASH_Program_DoubleWord
                0x00000000       0x64 stm32f4xx_hal_flash.c.o
 .text.FLASH_Program_Word
                0x00000000       0x44 stm32f4xx_hal_flash.c.o
 .text.FLASH_Program_HalfWord
                0x00000000       0x48 stm32f4xx_hal_flash.c.o
 .text.FLASH_Program_Byte
                0x00000000       0x44 stm32f4xx_hal_flash.c.o
 .text.FLASH_SetErrorCode
                0x00000000       0xcc stm32f4xx_hal_flash.c.o
 .debug_info    0x00000000      0x579 stm32f4xx_hal_flash.c.o
 .debug_abbrev  0x00000000      0x28a stm32f4xx_hal_flash.c.o
 .debug_aranges
                0x00000000       0xa0 stm32f4xx_hal_flash.c.o
 .debug_rnglists
                0x00000000       0x78 stm32f4xx_hal_flash.c.o
 .debug_line    0x00000000      0x6d8 stm32f4xx_hal_flash.c.o
 .debug_str     0x00000000      0x599 stm32f4xx_hal_flash.c.o
 .comment       0x00000000       0x45 stm32f4xx_hal_flash.c.o
 .debug_frame   0x00000000      0x274 stm32f4xx_hal_flash.c.o
 .ARM.attributes
                0x00000000       0x34 stm32f4xx_hal_flash.c.o
 .text          0x00000000        0x0 stm32f4xx_hal_flash_ex.c.o
 .data          0x00000000        0x0 stm32f4xx_hal_flash_ex.c.o
 .bss           0x00000000        0x0 stm32f4xx_hal_flash_ex.c.o
 .text.HAL_FLASHEx_Erase
                0x00000000       0xe0 stm32f4xx_hal_flash_ex.c.o
 .text.HAL_FLASHEx_Erase_IT
                0x00000000       0xac stm32f4xx_hal_flash_ex.c.o
 .text.HAL_FLASHEx_OBProgram
                0x00000000       0xdc stm32f4xx_hal_flash_ex.c.o
 .text.HAL_FLASHEx_OBGetConfig
                0x00000000       0x46 stm32f4xx_hal_flash_ex.c.o
 .text.HAL_FLASHEx_AdvOBProgram
                0x00000000       0x48 stm32f4xx_hal_flash_ex.c.o
 .text.HAL_FLASHEx_AdvOBGetConfig
                0x00000000       0x24 stm32f4xx_hal_flash_ex.c.o
 .text.HAL_FLASHEx_OB_SelectPCROP
                0x00000000       0x34 stm32f4xx_hal_flash_ex.c.o
 .text.HAL_FLASHEx_OB_DeSelectPCROP
                0x00000000       0x30 stm32f4xx_hal_flash_ex.c.o
 .text.FLASH_MassErase
                0x00000000       0x48 stm32f4xx_hal_flash_ex.c.o
 .text.FLASH_Erase_Sector
                0x00000000       0x90 stm32f4xx_hal_flash_ex.c.o
 .text.FLASH_OB_EnableWRP
                0x00000000       0x44 stm32f4xx_hal_flash_ex.c.o
 .text.FLASH_OB_DisableWRP
                0x00000000       0x40 stm32f4xx_hal_flash_ex.c.o
 .text.FLASH_OB_EnablePCROP
                0x00000000       0x40 stm32f4xx_hal_flash_ex.c.o
 .text.FLASH_OB_DisablePCROP
                0x00000000       0x44 stm32f4xx_hal_flash_ex.c.o
 .text.FLASH_OB_RDP_LevelConfig
                0x00000000       0x34 stm32f4xx_hal_flash_ex.c.o
 .text.FLASH_OB_UserConfig
                0x00000000       0x60 stm32f4xx_hal_flash_ex.c.o
 .text.FLASH_OB_BOR_LevelConfig
                0x00000000       0x3c stm32f4xx_hal_flash_ex.c.o
 .text.FLASH_OB_GetUser
                0x00000000       0x20 stm32f4xx_hal_flash_ex.c.o
 .text.FLASH_OB_GetWRP
                0x00000000       0x18 stm32f4xx_hal_flash_ex.c.o
 .text.FLASH_OB_GetRDP
                0x00000000       0x40 stm32f4xx_hal_flash_ex.c.o
 .text.FLASH_OB_GetBOR
                0x00000000       0x20 stm32f4xx_hal_flash_ex.c.o
 .text.FLASH_FlushCaches
                0x00000000       0x8c stm32f4xx_hal_flash_ex.c.o
 .debug_info    0x00000000      0x7d7 stm32f4xx_hal_flash_ex.c.o
 .debug_abbrev  0x00000000      0x26a stm32f4xx_hal_flash_ex.c.o
 .debug_aranges
                0x00000000       0xc8 stm32f4xx_hal_flash_ex.c.o
 .debug_rnglists
                0x00000000       0x96 stm32f4xx_hal_flash_ex.c.o
 .debug_line    0x00000000      0x76f stm32f4xx_hal_flash_ex.c.o
 .debug_str     0x00000000      0x6bc stm32f4xx_hal_flash_ex.c.o
 .comment       0x00000000       0x45 stm32f4xx_hal_flash_ex.c.o
 .debug_frame   0x00000000      0x334 stm32f4xx_hal_flash_ex.c.o
 .ARM.attributes
                0x00000000       0x34 stm32f4xx_hal_flash_ex.c.o
 .text          0x00000000        0x0 stm32f4xx_hal_flash_ramfunc.c.o
 .data          0x00000000        0x0 stm32f4xx_hal_flash_ramfunc.c.o
 .bss           0x00000000        0x0 stm32f4xx_hal_flash_ramfunc.c.o
 .RamFunc       0x00000000      0x110 stm32f4xx_hal_flash_ramfunc.c.o
 .debug_info    0x00000000      0x368 stm32f4xx_hal_flash_ramfunc.c.o
 .debug_abbrev  0x00000000      0x10c stm32f4xx_hal_flash_ramfunc.c.o
 .debug_aranges
                0x00000000       0x38 stm32f4xx_hal_flash_ramfunc.c.o
 .debug_rnglists
                0x00000000       0x25 stm32f4xx_hal_flash_ramfunc.c.o
 .debug_line    0x00000000      0x2af stm32f4xx_hal_flash_ramfunc.c.o
 .debug_str     0x00000000      0x411 stm32f4xx_hal_flash_ramfunc.c.o
 .comment       0x00000000       0x45 stm32f4xx_hal_flash_ramfunc.c.o
 .debug_frame   0x00000000       0xb0 stm32f4xx_hal_flash_ramfunc.c.o
 .ARM.attributes
                0x00000000       0x34 stm32f4xx_hal_flash_ramfunc.c.o
 .text          0x00000000        0x0 stm32f4xx_hal_gpio.c.o
 .data          0x00000000        0x0 stm32f4xx_hal_gpio.c.o
 .bss           0x00000000        0x0 stm32f4xx_hal_gpio.c.o
 .text.HAL_GPIO_Init
                0x00000000      0x328 stm32f4xx_hal_gpio.c.o
 .text.HAL_GPIO_DeInit
                0x00000000      0x1e8 stm32f4xx_hal_gpio.c.o
 .text.HAL_GPIO_ReadPin
                0x00000000       0x30 stm32f4xx_hal_gpio.c.o
 .text.HAL_GPIO_WritePin
                0x00000000       0x32 stm32f4xx_hal_gpio.c.o
 .text.HAL_GPIO_TogglePin
                0x00000000       0x34 stm32f4xx_hal_gpio.c.o
 .text.HAL_GPIO_LockPin
                0x00000000       0x50 stm32f4xx_hal_gpio.c.o
 .text.HAL_GPIO_EXTI_IRQHandler
                0x00000000       0x30 stm32f4xx_hal_gpio.c.o
 .text.HAL_GPIO_EXTI_Callback
                0x00000000       0x16 stm32f4xx_hal_gpio.c.o
 .debug_info    0x00000000      0x707 stm32f4xx_hal_gpio.c.o
 .debug_abbrev  0x00000000      0x1d2 stm32f4xx_hal_gpio.c.o
 .debug_aranges
                0x00000000       0x58 stm32f4xx_hal_gpio.c.o
 .debug_rnglists
                0x00000000       0x3f stm32f4xx_hal_gpio.c.o
 .debug_line    0x00000000      0x6c9 stm32f4xx_hal_gpio.c.o
 .debug_str     0x00000000      0x554 stm32f4xx_hal_gpio.c.o
 .comment       0x00000000       0x45 stm32f4xx_hal_gpio.c.o
 .debug_frame   0x00000000      0x14c stm32f4xx_hal_gpio.c.o
 .ARM.attributes
                0x00000000       0x34 stm32f4xx_hal_gpio.c.o
 .text          0x00000000        0x0 stm32f4xx_hal_dma_ex.c.o
 .data          0x00000000        0x0 stm32f4xx_hal_dma_ex.c.o
 .bss           0x00000000        0x0 stm32f4xx_hal_dma_ex.c.o
 .text.HAL_DMAEx_MultiBufferStart
                0x00000000       0x96 stm32f4xx_hal_dma_ex.c.o
 .text.HAL_DMAEx_MultiBufferStart_IT
                0x00000000     0x1290 stm32f4xx_hal_dma_ex.c.o
 .text.HAL_DMAEx_ChangeMemory
                0x00000000       0x34 stm32f4xx_hal_dma_ex.c.o
 .text.DMA_MultiBufferSetConfig
                0x00000000       0x4c stm32f4xx_hal_dma_ex.c.o
 .debug_info    0x00000000      0x4db stm32f4xx_hal_dma_ex.c.o
 .debug_abbrev  0x00000000      0x1a1 stm32f4xx_hal_dma_ex.c.o
 .debug_aranges
                0x00000000       0x38 stm32f4xx_hal_dma_ex.c.o
 .debug_rnglists
                0x00000000       0x27 stm32f4xx_hal_dma_ex.c.o
 .debug_line    0x00000000      0xf0a stm32f4xx_hal_dma_ex.c.o
 .debug_str     0x00000000      0x598 stm32f4xx_hal_dma_ex.c.o
 .comment       0x00000000       0x45 stm32f4xx_hal_dma_ex.c.o
 .debug_frame   0x00000000       0xac stm32f4xx_hal_dma_ex.c.o
 .ARM.attributes
                0x00000000       0x34 stm32f4xx_hal_dma_ex.c.o
 .text          0x00000000        0x0 stm32f4xx_hal_dma.c.o
 .data          0x00000000        0x0 stm32f4xx_hal_dma.c.o
 .bss           0x00000000        0x0 stm32f4xx_hal_dma.c.o
 .text.HAL_DMA_Init
                0x00000000      0x15c stm32f4xx_hal_dma.c.o
 .text.HAL_DMA_DeInit
                0x00000000       0xbc stm32f4xx_hal_dma.c.o
 .text.HAL_DMA_Start
                0x00000000       0x76 stm32f4xx_hal_dma.c.o
 .text.HAL_DMA_Start_IT
                0x00000000       0xb0 stm32f4xx_hal_dma.c.o
 .text.HAL_DMA_Abort
                0x00000000       0xe0 stm32f4xx_hal_dma.c.o
 .text.HAL_DMA_Abort_IT
                0x00000000       0x44 stm32f4xx_hal_dma.c.o
 .text.HAL_DMA_PollForTransfer
                0x00000000      0x1be stm32f4xx_hal_dma.c.o
 .text.HAL_DMA_IRQHandler
                0x00000000      0x314 stm32f4xx_hal_dma.c.o
 .text.HAL_DMA_RegisterCallback
                0x00000000       0xa8 stm32f4xx_hal_dma.c.o
 .text.HAL_DMA_UnRegisterCallback
                0x00000000       0xd4 stm32f4xx_hal_dma.c.o
 .text.HAL_DMA_GetState
                0x00000000       0x1c stm32f4xx_hal_dma.c.o
 .text.HAL_DMA_GetError
                0x00000000       0x18 stm32f4xx_hal_dma.c.o
 .text.DMA_SetConfig
                0x00000000       0x5c stm32f4xx_hal_dma.c.o
 .text.DMA_CalcBaseAndBitshift
                0x00000000       0x6c stm32f4xx_hal_dma.c.o
 .text.DMA_CheckFifoParam
                0x00000000       0xf8 stm32f4xx_hal_dma.c.o
 .rodata.flagBitshiftOffset.0
                0x00000000        0x8 stm32f4xx_hal_dma.c.o
 .debug_info    0x00000000      0x8e3 stm32f4xx_hal_dma.c.o
 .debug_abbrev  0x00000000      0x262 stm32f4xx_hal_dma.c.o
 .debug_aranges
                0x00000000       0x90 stm32f4xx_hal_dma.c.o
 .debug_rnglists
                0x00000000       0x70 stm32f4xx_hal_dma.c.o
 .debug_line    0x00000000      0xb19 stm32f4xx_hal_dma.c.o
 .debug_str     0x00000000      0x7c5 stm32f4xx_hal_dma.c.o
 .comment       0x00000000       0x45 stm32f4xx_hal_dma.c.o
 .debug_frame   0x00000000      0x250 stm32f4xx_hal_dma.c.o
 .ARM.attributes
                0x00000000       0x34 stm32f4xx_hal_dma.c.o
 .text          0x00000000        0x0 stm32f4xx_hal_pwr.c.o
 .data          0x00000000        0x0 stm32f4xx_hal_pwr.c.o
 .bss           0x00000000        0x0 stm32f4xx_hal_pwr.c.o
 .text.HAL_PWR_DeInit
                0x00000000       0x2c stm32f4xx_hal_pwr.c.o
 .text.HAL_PWR_EnableBkUpAccess
                0x00000000       0x28 stm32f4xx_hal_pwr.c.o
 .text.HAL_PWR_DisableBkUpAccess
                0x00000000       0x28 stm32f4xx_hal_pwr.c.o
 .text.HAL_PWR_ConfigPVD
                0x00000000       0xc0 stm32f4xx_hal_pwr.c.o
 .text.HAL_PWR_EnablePVD
                0x00000000       0x18 stm32f4xx_hal_pwr.c.o
 .text.HAL_PWR_DisablePVD
                0x00000000       0x18 stm32f4xx_hal_pwr.c.o
 .text.HAL_PWR_EnableWakeUpPin
                0x00000000       0x24 stm32f4xx_hal_pwr.c.o
 .text.HAL_PWR_DisableWakeUpPin
                0x00000000       0x28 stm32f4xx_hal_pwr.c.o
 .text.HAL_PWR_EnterSLEEPMode
                0x00000000       0x40 stm32f4xx_hal_pwr.c.o
 .text.HAL_PWR_EnterSTOPMode
                0x00000000       0x60 stm32f4xx_hal_pwr.c.o
 .text.HAL_PWR_EnterSTANDBYMode
                0x00000000       0x30 stm32f4xx_hal_pwr.c.o
 .text.HAL_PWR_PVD_IRQHandler
                0x00000000       0x24 stm32f4xx_hal_pwr.c.o
 .text.HAL_PWR_PVDCallback
                0x00000000        0xe stm32f4xx_hal_pwr.c.o
 .text.HAL_PWR_EnableSleepOnExit
                0x00000000       0x20 stm32f4xx_hal_pwr.c.o
 .text.HAL_PWR_DisableSleepOnExit
                0x00000000       0x20 stm32f4xx_hal_pwr.c.o
 .text.HAL_PWR_EnableSEVOnPend
                0x00000000       0x20 stm32f4xx_hal_pwr.c.o
 .text.HAL_PWR_DisableSEVOnPend
                0x00000000       0x20 stm32f4xx_hal_pwr.c.o
 .debug_info    0x00000000      0x72d stm32f4xx_hal_pwr.c.o
 .debug_abbrev  0x00000000      0x19a stm32f4xx_hal_pwr.c.o
 .debug_aranges
                0x00000000       0xa0 stm32f4xx_hal_pwr.c.o
 .debug_rnglists
                0x00000000       0x74 stm32f4xx_hal_pwr.c.o
 .debug_line    0x00000000      0x4e4 stm32f4xx_hal_pwr.c.o
 .debug_str     0x00000000      0x5b5 stm32f4xx_hal_pwr.c.o
 .comment       0x00000000       0x45 stm32f4xx_hal_pwr.c.o
 .debug_frame   0x00000000      0x264 stm32f4xx_hal_pwr.c.o
 .ARM.attributes
                0x00000000       0x34 stm32f4xx_hal_pwr.c.o
 .text          0x00000000        0x0 stm32f4xx_hal_pwr_ex.c.o
 .data          0x00000000        0x0 stm32f4xx_hal_pwr_ex.c.o
 .bss           0x00000000        0x0 stm32f4xx_hal_pwr_ex.c.o
 .text.HAL_PWREx_EnableBkUpReg
                0x00000000       0x4c stm32f4xx_hal_pwr_ex.c.o
 .text.HAL_PWREx_DisableBkUpReg
                0x00000000       0x4c stm32f4xx_hal_pwr_ex.c.o
 .text.HAL_PWREx_EnableFlashPowerDown
                0x00000000       0x18 stm32f4xx_hal_pwr_ex.c.o
 .text.HAL_PWREx_DisableFlashPowerDown
                0x00000000       0x18 stm32f4xx_hal_pwr_ex.c.o
 .text.HAL_PWREx_GetVoltageRange
                0x00000000       0x1c stm32f4xx_hal_pwr_ex.c.o
 .text.HAL_PWREx_ControlVoltageScaling
                0x00000000       0xf4 stm32f4xx_hal_pwr_ex.c.o
 .text.HAL_PWREx_EnableOverDrive
                0x00000000       0xa0 stm32f4xx_hal_pwr_ex.c.o
 .text.HAL_PWREx_DisableOverDrive
                0x00000000       0xa0 stm32f4xx_hal_pwr_ex.c.o
 .text.HAL_PWREx_EnterUnderDriveSTOPMode
                0x00000000       0xa4 stm32f4xx_hal_pwr_ex.c.o
 .debug_info    0x00000000      0x6d6 stm32f4xx_hal_pwr_ex.c.o
 .debug_abbrev  0x00000000      0x1cd stm32f4xx_hal_pwr_ex.c.o
 .debug_aranges
                0x00000000       0x60 stm32f4xx_hal_pwr_ex.c.o
 .debug_rnglists
                0x00000000       0x47 stm32f4xx_hal_pwr_ex.c.o
 .debug_line    0x00000000      0x556 stm32f4xx_hal_pwr_ex.c.o
 .debug_str     0x00000000      0x53f stm32f4xx_hal_pwr_ex.c.o
 .comment       0x00000000       0x45 stm32f4xx_hal_pwr_ex.c.o
 .debug_frame   0x00000000      0x14c stm32f4xx_hal_pwr_ex.c.o
 .ARM.attributes
                0x00000000       0x34 stm32f4xx_hal_pwr_ex.c.o
 .text          0x00000000        0x0 stm32f4xx_hal_cortex.c.o
 .data          0x00000000        0x0 stm32f4xx_hal_cortex.c.o
 .bss           0x00000000        0x0 stm32f4xx_hal_cortex.c.o
 .text.__NVIC_DisableIRQ
                0x00000000       0x48 stm32f4xx_hal_cortex.c.o
 .text.__NVIC_GetPendingIRQ
                0x00000000       0x44 stm32f4xx_hal_cortex.c.o
 .text.__NVIC_SetPendingIRQ
                0x00000000       0x3c stm32f4xx_hal_cortex.c.o
 .text.__NVIC_ClearPendingIRQ
                0x00000000       0x3c stm32f4xx_hal_cortex.c.o
 .text.__NVIC_GetActive
                0x00000000       0x44 stm32f4xx_hal_cortex.c.o
 .text.__NVIC_GetPriority
                0x00000000       0x50 stm32f4xx_hal_cortex.c.o
 .text.NVIC_DecodePriority
                0x00000000       0x6e stm32f4xx_hal_cortex.c.o
 .text.__NVIC_SystemReset
                0x00000000       0x2c stm32f4xx_hal_cortex.c.o
 .text.SysTick_Config
                0x00000000       0x44 stm32f4xx_hal_cortex.c.o
 .text.HAL_NVIC_DisableIRQ
                0x00000000       0x1c stm32f4xx_hal_cortex.c.o
 .text.HAL_NVIC_SystemReset
                0x00000000        0x8 stm32f4xx_hal_cortex.c.o
 .text.HAL_SYSTICK_Config
                0x00000000       0x18 stm32f4xx_hal_cortex.c.o
 .text.HAL_MPU_Disable
                0x00000000       0x30 stm32f4xx_hal_cortex.c.o
 .text.HAL_MPU_Enable
                0x00000000       0x40 stm32f4xx_hal_cortex.c.o
 .text.HAL_MPU_ConfigRegion
                0x00000000       0x88 stm32f4xx_hal_cortex.c.o
 .text.HAL_CORTEX_ClearEvent
                0x00000000       0x12 stm32f4xx_hal_cortex.c.o
 .text.HAL_NVIC_GetPriorityGrouping
                0x00000000        0xe stm32f4xx_hal_cortex.c.o
 .text.HAL_NVIC_GetPriority
                0x00000000       0x2c stm32f4xx_hal_cortex.c.o
 .text.HAL_NVIC_SetPendingIRQ
                0x00000000       0x1c stm32f4xx_hal_cortex.c.o
 .text.HAL_NVIC_GetPendingIRQ
                0x00000000       0x1e stm32f4xx_hal_cortex.c.o
 .text.HAL_NVIC_ClearPendingIRQ
                0x00000000       0x1c stm32f4xx_hal_cortex.c.o
 .text.HAL_NVIC_GetActive
                0x00000000       0x1e stm32f4xx_hal_cortex.c.o
 .text.HAL_SYSTICK_CLKSourceConfig
                0x00000000       0x38 stm32f4xx_hal_cortex.c.o
 .text.HAL_SYSTICK_IRQHandler
                0x00000000        0xc stm32f4xx_hal_cortex.c.o
 .text.HAL_SYSTICK_Callback
                0x00000000        0xe stm32f4xx_hal_cortex.c.o
 .text          0x00000000        0x0 stm32f4xx_hal.c.o
 .data          0x00000000        0x0 stm32f4xx_hal.c.o
 .bss           0x00000000        0x0 stm32f4xx_hal.c.o
 .text.HAL_DeInit
                0x00000000       0x5c stm32f4xx_hal.c.o
 .text.HAL_MspInit
                0x00000000        0xe stm32f4xx_hal.c.o
 .text.HAL_MspDeInit
                0x00000000        0xe stm32f4xx_hal.c.o
 .text.HAL_InitTick
                0x00000000       0x60 stm32f4xx_hal.c.o
 .text.HAL_GetTickPrio
                0x00000000       0x18 stm32f4xx_hal.c.o
 .text.HAL_SetTickFreq
                0x00000000       0x50 stm32f4xx_hal.c.o
 .text.HAL_GetTickFreq
                0x00000000       0x18 stm32f4xx_hal.c.o
 .text.HAL_Delay
                0x00000000       0x48 stm32f4xx_hal.c.o
 .text.HAL_SuspendTick
                0x00000000       0x20 stm32f4xx_hal.c.o
 .text.HAL_ResumeTick
                0x00000000       0x20 stm32f4xx_hal.c.o
 .text.HAL_GetHalVersion
                0x00000000       0x14 stm32f4xx_hal.c.o
 .text.HAL_GetREVID
                0x00000000       0x18 stm32f4xx_hal.c.o
 .text.HAL_GetDEVID
                0x00000000       0x1c stm32f4xx_hal.c.o
 .text.HAL_DBGMCU_EnableDBGSleepMode
                0x00000000       0x20 stm32f4xx_hal.c.o
 .text.HAL_DBGMCU_DisableDBGSleepMode
                0x00000000       0x20 stm32f4xx_hal.c.o
 .text.HAL_DBGMCU_EnableDBGStopMode
                0x00000000       0x20 stm32f4xx_hal.c.o
 .text.HAL_DBGMCU_DisableDBGStopMode
                0x00000000       0x20 stm32f4xx_hal.c.o
 .text.HAL_DBGMCU_EnableDBGStandbyMode
                0x00000000       0x20 stm32f4xx_hal.c.o
 .text.HAL_DBGMCU_DisableDBGStandbyMode
                0x00000000       0x20 stm32f4xx_hal.c.o
 .text.HAL_EnableCompensationCell
                0x00000000       0x18 stm32f4xx_hal.c.o
 .text.HAL_DisableCompensationCell
                0x00000000       0x18 stm32f4xx_hal.c.o
 .text.HAL_GetUIDw0
                0x00000000       0x18 stm32f4xx_hal.c.o
 .text.HAL_GetUIDw1
                0x00000000       0x18 stm32f4xx_hal.c.o
 .text.HAL_GetUIDw2
                0x00000000       0x18 stm32f4xx_hal.c.o
 .text          0x00000000        0x0 stm32f4xx_hal_exti.c.o
 .data          0x00000000        0x0 stm32f4xx_hal_exti.c.o
 .bss           0x00000000        0x0 stm32f4xx_hal_exti.c.o
 .text.HAL_EXTI_SetConfigLine
                0x00000000      0x150 stm32f4xx_hal_exti.c.o
 .text.HAL_EXTI_GetConfigLine
                0x00000000       0xf4 stm32f4xx_hal_exti.c.o
 .text.HAL_EXTI_ClearConfigLine
                0x00000000       0xc0 stm32f4xx_hal_exti.c.o
 .text.HAL_EXTI_RegisterCallback
                0x00000000       0x34 stm32f4xx_hal_exti.c.o
 .text.HAL_EXTI_GetHandle
                0x00000000       0x28 stm32f4xx_hal_exti.c.o
 .text.HAL_EXTI_IRQHandler
                0x00000000       0x48 stm32f4xx_hal_exti.c.o
 .text.HAL_EXTI_GetPending
                0x00000000       0x40 stm32f4xx_hal_exti.c.o
 .text.HAL_EXTI_ClearPending
                0x00000000       0x30 stm32f4xx_hal_exti.c.o
 .text.HAL_EXTI_GenerateSWI
                0x00000000       0x30 stm32f4xx_hal_exti.c.o
 .debug_info    0x00000000      0x508 stm32f4xx_hal_exti.c.o
 .debug_abbrev  0x00000000      0x1c4 stm32f4xx_hal_exti.c.o
 .debug_aranges
                0x00000000       0x60 stm32f4xx_hal_exti.c.o
 .debug_rnglists
                0x00000000       0x46 stm32f4xx_hal_exti.c.o
 .debug_line    0x00000000      0x57e stm32f4xx_hal_exti.c.o
 .debug_str     0x00000000      0x43f stm32f4xx_hal_exti.c.o
 .comment       0x00000000       0x45 stm32f4xx_hal_exti.c.o
 .debug_frame   0x00000000      0x174 stm32f4xx_hal_exti.c.o
 .ARM.attributes
                0x00000000       0x34 stm32f4xx_hal_exti.c.o
 .text          0x00000000        0x0 stm32f4xx_ll_usart.c.o
 .data          0x00000000        0x0 stm32f4xx_ll_usart.c.o
 .bss           0x00000000        0x0 stm32f4xx_ll_usart.c.o
 .text.LL_USART_DisableSCLKOutput
                0x00000000       0x20 stm32f4xx_ll_usart.c.o
 .text.LL_APB1_GRP1_ForceReset
                0x00000000       0x24 stm32f4xx_ll_usart.c.o
 .text.LL_APB1_GRP1_ReleaseReset
                0x00000000       0x28 stm32f4xx_ll_usart.c.o
 .text.LL_APB2_GRP1_ForceReset
                0x00000000       0x24 stm32f4xx_ll_usart.c.o
 .text.LL_APB2_GRP1_ReleaseReset
                0x00000000       0x28 stm32f4xx_ll_usart.c.o
 .text.LL_USART_DeInit
                0x00000000       0xc8 stm32f4xx_ll_usart.c.o
 .text.LL_USART_StructInit
                0x00000000       0x40 stm32f4xx_ll_usart.c.o
 .text.LL_USART_ClockInit
                0x00000000       0x5c stm32f4xx_ll_usart.c.o
 .text.LL_USART_ClockStructInit
                0x00000000       0x2c stm32f4xx_ll_usart.c.o
 .text          0x00000000        0x0 system_stm32f4xx.c.o
 .data          0x00000000        0x0 system_stm32f4xx.c.o
 .bss           0x00000000        0x0 system_stm32f4xx.c.o
 .text.SystemCoreClockUpdate
                0x00000000      0x100 system_stm32f4xx.c.o
 .text          0x00000000        0x0 syscalls.c.o
 .data          0x00000000        0x0 syscalls.c.o
 .bss           0x00000000        0x0 syscalls.c.o
 .bss.__env     0x00000000        0x4 syscalls.c.o
 .data.environ  0x00000000        0x4 syscalls.c.o
 .text.initialise_monitor_handles
                0x00000000        0xe syscalls.c.o
 .text._getpid  0x00000000       0x10 syscalls.c.o
 .text._kill    0x00000000       0x20 syscalls.c.o
 .text._exit    0x00000000       0x16 syscalls.c.o
 .text._read    0x00000000       0x3a syscalls.c.o
 .text._write   0x00000000       0x38 syscalls.c.o
 .text._close   0x00000000       0x18 syscalls.c.o
 .text._fstat   0x00000000       0x20 syscalls.c.o
 .text._isatty  0x00000000       0x16 syscalls.c.o
 .text._lseek   0x00000000       0x1a syscalls.c.o
 .text._open    0x00000000       0x1c syscalls.c.o
 .text._wait    0x00000000       0x1e syscalls.c.o
 .text._unlink  0x00000000       0x1e syscalls.c.o
 .text._times   0x00000000       0x18 syscalls.c.o
 .text._stat    0x00000000       0x20 syscalls.c.o
 .text._link    0x00000000       0x20 syscalls.c.o
 .text._fork    0x00000000       0x16 syscalls.c.o
 .text._execve  0x00000000       0x22 syscalls.c.o
 .debug_info    0x00000000      0x69f syscalls.c.o
 .debug_abbrev  0x00000000      0x1b4 syscalls.c.o
 .debug_aranges
                0x00000000       0xa8 syscalls.c.o
 .debug_rnglists
                0x00000000       0x79 syscalls.c.o
 .debug_line    0x00000000      0x3f8 syscalls.c.o
 .debug_str     0x00000000      0x462 syscalls.c.o
 .comment       0x00000000       0x45 syscalls.c.o
 .debug_frame   0x00000000      0x2ac syscalls.c.o
 .ARM.attributes
                0x00000000       0x34 syscalls.c.o
 .text          0x00000000        0x0 sysmem.c.o
 .data          0x00000000        0x0 sysmem.c.o
 .bss           0x00000000        0x0 sysmem.c.o
 .bss.__sbrk_heap_end
                0x00000000        0x4 sysmem.c.o
 .text._sbrk    0x00000000       0x6c sysmem.c.o
 .debug_info    0x00000000      0x164 sysmem.c.o
 .debug_abbrev  0x00000000       0xba sysmem.c.o
 .debug_aranges
                0x00000000       0x20 sysmem.c.o
 .debug_rnglists
                0x00000000       0x13 sysmem.c.o
 .debug_line    0x00000000      0x25a sysmem.c.o
 .debug_str     0x00000000      0x28e sysmem.c.o
 .comment       0x00000000       0x45 sysmem.c.o
 .debug_frame   0x00000000       0x34 sysmem.c.o
 .ARM.attributes
                0x00000000       0x34 sysmem.c.o
 .text          0x00000000       0x14 startup_stm32f446retx.s.o
 .data          0x00000000        0x0 startup_stm32f446retx.s.o
 .bss           0x00000000        0x0 startup_stm32f446retx.s.o
 .text          0x00000000        0x0 C:/ProgramData/MATLAB/SupportPackages/R2025b/3P.instrset/gnuarm-armcortex.instrset/win/bin/../lib/gcc/arm-none-eabi/13.2.1/thumb/v7e-m+fp/hard\libm.a(libm_a-w_fmod.o)
 .data          0x00000000        0x0 C:/ProgramData/MATLAB/SupportPackages/R2025b/3P.instrset/gnuarm-armcortex.instrset/win/bin/../lib/gcc/arm-none-eabi/13.2.1/thumb/v7e-m+fp/hard\libm.a(libm_a-w_fmod.o)
 .bss           0x00000000        0x0 C:/ProgramData/MATLAB/SupportPackages/R2025b/3P.instrset/gnuarm-armcortex.instrset/win/bin/../lib/gcc/arm-none-eabi/13.2.1/thumb/v7e-m+fp/hard\libm.a(libm_a-w_fmod.o)
 .text          0x00000000        0x0 C:/ProgramData/MATLAB/SupportPackages/R2025b/3P.instrset/gnuarm-armcortex.instrset/win/bin/../lib/gcc/arm-none-eabi/13.2.1/thumb/v7e-m+fp/hard\libm.a(libm_a-e_fmod.o)
 .data          0x00000000        0x0 C:/ProgramData/MATLAB/SupportPackages/R2025b/3P.instrset/gnuarm-armcortex.instrset/win/bin/../lib/gcc/arm-none-eabi/13.2.1/thumb/v7e-m+fp/hard\libm.a(libm_a-e_fmod.o)
 .bss           0x00000000        0x0 C:/ProgramData/MATLAB/SupportPackages/R2025b/3P.instrset/gnuarm-armcortex.instrset/win/bin/../lib/gcc/arm-none-eabi/13.2.1/thumb/v7e-m+fp/hard\libm.a(libm_a-e_fmod.o)
 .text          0x00000000      0x254 C:/ProgramData/MATLAB/SupportPackages/R2025b/3P.instrset/gnuarm-armcortex.instrset/win/bin/../lib/gcc/arm-none-eabi/13.2.1/thumb/v7e-m+fp/hard\libgcc.a(_arm_muldf3.o)
 .data          0x00000000        0x0 C:/ProgramData/MATLAB/SupportPackages/R2025b/3P.instrset/gnuarm-armcortex.instrset/win/bin/../lib/gcc/arm-none-eabi/13.2.1/thumb/v7e-m+fp/hard\libgcc.a(_arm_muldf3.o)
 .bss           0x00000000        0x0 C:/ProgramData/MATLAB/SupportPackages/R2025b/3P.instrset/gnuarm-armcortex.instrset/win/bin/../lib/gcc/arm-none-eabi/13.2.1/thumb/v7e-m+fp/hard\libgcc.a(_arm_muldf3.o)
 .debug_line_str
                0x00000000       0xce C:/ProgramData/MATLAB/SupportPackages/R2025b/3P.instrset/gnuarm-armcortex.instrset/win/bin/../lib/gcc/arm-none-eabi/13.2.1/thumb/v7e-m+fp/hard\libgcc.a(_arm_muldf3.o)
 .debug_frame   0x00000000       0x30 C:/ProgramData/MATLAB/SupportPackages/R2025b/3P.instrset/gnuarm-armcortex.instrset/win/bin/../lib/gcc/arm-none-eabi/13.2.1/thumb/v7e-m+fp/hard\libgcc.a(_arm_muldf3.o)
 .ARM.attributes
                0x00000000       0x22 C:/ProgramData/MATLAB/SupportPackages/R2025b/3P.instrset/gnuarm-armcortex.instrset/win/bin/../lib/gcc/arm-none-eabi/13.2.1/thumb/v7e-m+fp/hard\libgcc.a(_arm_muldf3.o)
 .data          0x00000000        0x0 C:/ProgramData/MATLAB/SupportPackages/R2025b/3P.instrset/gnuarm-armcortex.instrset/win/bin/../lib/gcc/arm-none-eabi/13.2.1/thumb/v7e-m+fp/hard\libgcc.a(_arm_addsubdf3.o)
 .bss           0x00000000        0x0 C:/ProgramData/MATLAB/SupportPackages/R2025b/3P.instrset/gnuarm-armcortex.instrset/win/bin/../lib/gcc/arm-none-eabi/13.2.1/thumb/v7e-m+fp/hard\libgcc.a(_arm_addsubdf3.o)
 .data          0x00000000        0x0 C:/ProgramData/MATLAB/SupportPackages/R2025b/3P.instrset/gnuarm-armcortex.instrset/win/bin/../lib/gcc/arm-none-eabi/13.2.1/thumb/v7e-m+fp/hard\libgcc.a(_arm_muldivdf3.o)
 .bss           0x00000000        0x0 C:/ProgramData/MATLAB/SupportPackages/R2025b/3P.instrset/gnuarm-armcortex.instrset/win/bin/../lib/gcc/arm-none-eabi/13.2.1/thumb/v7e-m+fp/hard\libgcc.a(_arm_muldivdf3.o)
 .data          0x00000000        0x0 C:/ProgramData/MATLAB/SupportPackages/R2025b/3P.instrset/gnuarm-armcortex.instrset/win/bin/../lib/gcc/arm-none-eabi/13.2.1/thumb/v7e-m+fp/hard\libgcc.a(_arm_cmpdf2.o)
 .bss           0x00000000        0x0 C:/ProgramData/MATLAB/SupportPackages/R2025b/3P.instrset/gnuarm-armcortex.instrset/win/bin/../lib/gcc/arm-none-eabi/13.2.1/thumb/v7e-m+fp/hard\libgcc.a(_arm_cmpdf2.o)
 .data          0x00000000        0x0 C:/ProgramData/MATLAB/SupportPackages/R2025b/3P.instrset/gnuarm-armcortex.instrset/win/bin/../lib/gcc/arm-none-eabi/13.2.1/thumb/v7e-m+fp/hard\libgcc.a(_arm_unorddf2.o)
 .bss           0x00000000        0x0 C:/ProgramData/MATLAB/SupportPackages/R2025b/3P.instrset/gnuarm-armcortex.instrset/win/bin/../lib/gcc/arm-none-eabi/13.2.1/thumb/v7e-m+fp/hard\libgcc.a(_arm_unorddf2.o)
 .data          0x00000000        0x0 C:/ProgramData/MATLAB/SupportPackages/R2025b/3P.instrset/gnuarm-armcortex.instrset/win/bin/../lib/gcc/arm-none-eabi/13.2.1/thumb/v7e-m+fp/hard\libgcc.a(_arm_fixunsdfsi.o)
 .bss           0x00000000        0x0 C:/ProgramData/MATLAB/SupportPackages/R2025b/3P.instrset/gnuarm-armcortex.instrset/win/bin/../lib/gcc/arm-none-eabi/13.2.1/thumb/v7e-m+fp/hard\libgcc.a(_arm_fixunsdfsi.o)
 .data          0x00000000        0x0 C:/ProgramData/MATLAB/SupportPackages/R2025b/3P.instrset/gnuarm-armcortex.instrset/win/bin/../lib/gcc/arm-none-eabi/13.2.1/thumb/v7e-m+fp/hard\libgcc.a(_aeabi_uldivmod.o)
 .bss           0x00000000        0x0 C:/ProgramData/MATLAB/SupportPackages/R2025b/3P.instrset/gnuarm-armcortex.instrset/win/bin/../lib/gcc/arm-none-eabi/13.2.1/thumb/v7e-m+fp/hard\libgcc.a(_aeabi_uldivmod.o)
 .text          0x00000000        0x0 C:/ProgramData/MATLAB/SupportPackages/R2025b/3P.instrset/gnuarm-armcortex.instrset/win/bin/../lib/gcc/arm-none-eabi/13.2.1/thumb/v7e-m+fp/hard\libgcc.a(_udivmoddi4.o)
 .data          0x00000000        0x0 C:/ProgramData/MATLAB/SupportPackages/R2025b/3P.instrset/gnuarm-armcortex.instrset/win/bin/../lib/gcc/arm-none-eabi/13.2.1/thumb/v7e-m+fp/hard\libgcc.a(_udivmoddi4.o)
 .bss           0x00000000        0x0 C:/ProgramData/MATLAB/SupportPackages/R2025b/3P.instrset/gnuarm-armcortex.instrset/win/bin/../lib/gcc/arm-none-eabi/13.2.1/thumb/v7e-m+fp/hard\libgcc.a(_udivmoddi4.o)
 .ARM.extab.text.__udivmoddi4
                0x00000000        0x0 C:/ProgramData/MATLAB/SupportPackages/R2025b/3P.instrset/gnuarm-armcortex.instrset/win/bin/../lib/gcc/arm-none-eabi/13.2.1/thumb/v7e-m+fp/hard\libgcc.a(_udivmoddi4.o)
 .data          0x00000000        0x0 C:/ProgramData/MATLAB/SupportPackages/R2025b/3P.instrset/gnuarm-armcortex.instrset/win/bin/../lib/gcc/arm-none-eabi/13.2.1/thumb/v7e-m+fp/hard\libgcc.a(_dvmd_tls.o)
 .bss           0x00000000        0x0 C:/ProgramData/MATLAB/SupportPackages/R2025b/3P.instrset/gnuarm-armcortex.instrset/win/bin/../lib/gcc/arm-none-eabi/13.2.1/thumb/v7e-m+fp/hard\libgcc.a(_dvmd_tls.o)
 .text          0x00000000        0x0 C:/ProgramData/MATLAB/SupportPackages/R2025b/3P.instrset/gnuarm-armcortex.instrset/win/bin/../lib/gcc/arm-none-eabi/13.2.1/thumb/v7e-m+fp/hard\libg_nano.a(libc_a-exit.o)
 .data          0x00000000        0x0 C:/ProgramData/MATLAB/SupportPackages/R2025b/3P.instrset/gnuarm-armcortex.instrset/win/bin/../lib/gcc/arm-none-eabi/13.2.1/thumb/v7e-m+fp/hard\libg_nano.a(libc_a-exit.o)
 .bss           0x00000000        0x0 C:/ProgramData/MATLAB/SupportPackages/R2025b/3P.instrset/gnuarm-armcortex.instrset/win/bin/../lib/gcc/arm-none-eabi/13.2.1/thumb/v7e-m+fp/hard\libg_nano.a(libc_a-exit.o)
 .text.exit     0x00000000       0x24 C:/ProgramData/MATLAB/SupportPackages/R2025b/3P.instrset/gnuarm-armcortex.instrset/win/bin/../lib/gcc/arm-none-eabi/13.2.1/thumb/v7e-m+fp/hard\libg_nano.a(libc_a-exit.o)
 .debug_frame   0x00000000       0x28 C:/ProgramData/MATLAB/SupportPackages/R2025b/3P.instrset/gnuarm-armcortex.instrset/win/bin/../lib/gcc/arm-none-eabi/13.2.1/thumb/v7e-m+fp/hard\libg_nano.a(libc_a-exit.o)
 .ARM.attributes
                0x00000000       0x34 C:/ProgramData/MATLAB/SupportPackages/R2025b/3P.instrset/gnuarm-armcortex.instrset/win/bin/../lib/gcc/arm-none-eabi/13.2.1/thumb/v7e-m+fp/hard\libg_nano.a(libc_a-exit.o)
 .text          0x00000000        0x0 C:/ProgramData/MATLAB/SupportPackages/R2025b/3P.instrset/gnuarm-armcortex.instrset/win/bin/../lib/gcc/arm-none-eabi/13.2.1/thumb/v7e-m+fp/hard\libg_nano.a(libc_a-findfp.o)
 .data          0x00000000        0x0 C:/ProgramData/MATLAB/SupportPackages/R2025b/3P.instrset/gnuarm-armcortex.instrset/win/bin/../lib/gcc/arm-none-eabi/13.2.1/thumb/v7e-m+fp/hard\libg_nano.a(libc_a-findfp.o)
 .bss           0x00000000        0x0 C:/ProgramData/MATLAB/SupportPackages/R2025b/3P.instrset/gnuarm-armcortex.instrset/win/bin/../lib/gcc/arm-none-eabi/13.2.1/thumb/v7e-m+fp/hard\libg_nano.a(libc_a-findfp.o)
 .text.std      0x00000000       0x6c C:/ProgramData/MATLAB/SupportPackages/R2025b/3P.instrset/gnuarm-armcortex.instrset/win/bin/../lib/gcc/arm-none-eabi/13.2.1/thumb/v7e-m+fp/hard\libg_nano.a(libc_a-findfp.o)
 .text.stdio_exit_handler
                0x00000000       0x18 C:/ProgramData/MATLAB/SupportPackages/R2025b/3P.instrset/gnuarm-armcortex.instrset/win/bin/../lib/gcc/arm-none-eabi/13.2.1/thumb/v7e-m+fp/hard\libg_nano.a(libc_a-findfp.o)
 .text.cleanup_stdio
                0x00000000       0x40 C:/ProgramData/MATLAB/SupportPackages/R2025b/3P.instrset/gnuarm-armcortex.instrset/win/bin/../lib/gcc/arm-none-eabi/13.2.1/thumb/v7e-m+fp/hard\libg_nano.a(libc_a-findfp.o)
 .text.__fp_lock
                0x00000000       0x18 C:/ProgramData/MATLAB/SupportPackages/R2025b/3P.instrset/gnuarm-armcortex.instrset/win/bin/../lib/gcc/arm-none-eabi/13.2.1/thumb/v7e-m+fp/hard\libg_nano.a(libc_a-findfp.o)
 .text.__fp_unlock
                0x00000000       0x18 C:/ProgramData/MATLAB/SupportPackages/R2025b/3P.instrset/gnuarm-armcortex.instrset/win/bin/../lib/gcc/arm-none-eabi/13.2.1/thumb/v7e-m+fp/hard\libg_nano.a(libc_a-findfp.o)
 .text.global_stdio_init.part.0
                0x00000000       0x3c C:/ProgramData/MATLAB/SupportPackages/R2025b/3P.instrset/gnuarm-armcortex.instrset/win/bin/../lib/gcc/arm-none-eabi/13.2.1/thumb/v7e-m+fp/hard\libg_nano.a(libc_a-findfp.o)
 .text.__sfp_lock_acquire
                0x00000000        0xc C:/ProgramData/MATLAB/SupportPackages/R2025b/3P.instrset/gnuarm-armcortex.instrset/win/bin/../lib/gcc/arm-none-eabi/13.2.1/thumb/v7e-m+fp/hard\libg_nano.a(libc_a-findfp.o)
 .text.__sfp_lock_release
                0x00000000        0xc C:/ProgramData/MATLAB/SupportPackages/R2025b/3P.instrset/gnuarm-armcortex.instrset/win/bin/../lib/gcc/arm-none-eabi/13.2.1/thumb/v7e-m+fp/hard\libg_nano.a(libc_a-findfp.o)
 .text.__sfp    0x00000000       0xa4 C:/ProgramData/MATLAB/SupportPackages/R2025b/3P.instrset/gnuarm-armcortex.instrset/win/bin/../lib/gcc/arm-none-eabi/13.2.1/thumb/v7e-m+fp/hard\libg_nano.a(libc_a-findfp.o)
 .text.__sinit  0x00000000       0x30 C:/ProgramData/MATLAB/SupportPackages/R2025b/3P.instrset/gnuarm-armcortex.instrset/win/bin/../lib/gcc/arm-none-eabi/13.2.1/thumb/v7e-m+fp/hard\libg_nano.a(libc_a-findfp.o)
 .text.__fp_lock_all
                0x00000000       0x1c C:/ProgramData/MATLAB/SupportPackages/R2025b/3P.instrset/gnuarm-armcortex.instrset/win/bin/../lib/gcc/arm-none-eabi/13.2.1/thumb/v7e-m+fp/hard\libg_nano.a(libc_a-findfp.o)
 .text.__fp_unlock_all
                0x00000000       0x1c C:/ProgramData/MATLAB/SupportPackages/R2025b/3P.instrset/gnuarm-armcortex.instrset/win/bin/../lib/gcc/arm-none-eabi/13.2.1/thumb/v7e-m+fp/hard\libg_nano.a(libc_a-findfp.o)
 .data.__sglue  0x00000000        0xc C:/ProgramData/MATLAB/SupportPackages/R2025b/3P.instrset/gnuarm-armcortex.instrset/win/bin/../lib/gcc/arm-none-eabi/13.2.1/thumb/v7e-m+fp/hard\libg_nano.a(libc_a-findfp.o)
 .bss.__stdio_exit_handler
                0x00000000        0x4 C:/ProgramData/MATLAB/SupportPackages/R2025b/3P.instrset/gnuarm-armcortex.instrset/win/bin/../lib/gcc/arm-none-eabi/13.2.1/thumb/v7e-m+fp/hard\libg_nano.a(libc_a-findfp.o)
 .text          0x00000000        0x0 C:/ProgramData/MATLAB/SupportPackages/R2025b/3P.instrset/gnuarm-armcortex.instrset/win/bin/../lib/gcc/arm-none-eabi/13.2.1/thumb/v7e-m+fp/hard\libg_nano.a(libc_a-fwalk.o)
 .data          0x00000000        0x0 C:/ProgramData/MATLAB/SupportPackages/R2025b/3P.instrset/gnuarm-armcortex.instrset/win/bin/../lib/gcc/arm-none-eabi/13.2.1/thumb/v7e-m+fp/hard\libg_nano.a(libc_a-fwalk.o)
 .bss           0x00000000        0x0 C:/ProgramData/MATLAB/SupportPackages/R2025b/3P.instrset/gnuarm-armcortex.instrset/win/bin/../lib/gcc/arm-none-eabi/13.2.1/thumb/v7e-m+fp/hard\libg_nano.a(libc_a-fwalk.o)
 .text._fwalk_sglue
                0x00000000       0x3c C:/ProgramData/MATLAB/SupportPackages/R2025b/3P.instrset/gnuarm-armcortex.instrset/win/bin/../lib/gcc/arm-none-eabi/13.2.1/thumb/v7e-m+fp/hard\libg_nano.a(libc_a-fwalk.o)
 .debug_frame   0x00000000       0x34 C:/ProgramData/MATLAB/SupportPackages/R2025b/3P.instrset/gnuarm-armcortex.instrset/win/bin/../lib/gcc/arm-none-eabi/13.2.1/thumb/v7e-m+fp/hard\libg_nano.a(libc_a-fwalk.o)
 .ARM.attributes
                0x00000000       0x34 C:/ProgramData/MATLAB/SupportPackages/R2025b/3P.instrset/gnuarm-armcortex.instrset/win/bin/../lib/gcc/arm-none-eabi/13.2.1/thumb/v7e-m+fp/hard\libg_nano.a(libc_a-fwalk.o)
 .text          0x00000000        0x0 C:/ProgramData/MATLAB/SupportPackages/R2025b/3P.instrset/gnuarm-armcortex.instrset/win/bin/../lib/gcc/arm-none-eabi/13.2.1/thumb/v7e-m+fp/hard\libg_nano.a(libc_a-stdio.o)
 .data          0x00000000        0x0 C:/ProgramData/MATLAB/SupportPackages/R2025b/3P.instrset/gnuarm-armcortex.instrset/win/bin/../lib/gcc/arm-none-eabi/13.2.1/thumb/v7e-m+fp/hard\libg_nano.a(libc_a-stdio.o)
 .bss           0x00000000        0x0 C:/ProgramData/MATLAB/SupportPackages/R2025b/3P.instrset/gnuarm-armcortex.instrset/win/bin/../lib/gcc/arm-none-eabi/13.2.1/thumb/v7e-m+fp/hard\libg_nano.a(libc_a-stdio.o)
 .text.__sread  0x00000000       0x22 C:/ProgramData/MATLAB/SupportPackages/R2025b/3P.instrset/gnuarm-armcortex.instrset/win/bin/../lib/gcc/arm-none-eabi/13.2.1/thumb/v7e-m+fp/hard\libg_nano.a(libc_a-stdio.o)
 .text.__seofread
                0x00000000        0x4 C:/ProgramData/MATLAB/SupportPackages/R2025b/3P.instrset/gnuarm-armcortex.instrset/win/bin/../lib/gcc/arm-none-eabi/13.2.1/thumb/v7e-m+fp/hard\libg_nano.a(libc_a-stdio.o)
 .text.__swrite
                0x00000000       0x38 C:/ProgramData/MATLAB/SupportPackages/R2025b/3P.instrset/gnuarm-armcortex.instrset/win/bin/../lib/gcc/arm-none-eabi/13.2.1/thumb/v7e-m+fp/hard\libg_nano.a(libc_a-stdio.o)
 .text.__sseek  0x00000000       0x24 C:/ProgramData/MATLAB/SupportPackages/R2025b/3P.instrset/gnuarm-armcortex.instrset/win/bin/../lib/gcc/arm-none-eabi/13.2.1/thumb/v7e-m+fp/hard\libg_nano.a(libc_a-stdio.o)
 .text.__sclose
                0x00000000        0x8 C:/ProgramData/MATLAB/SupportPackages/R2025b/3P.instrset/gnuarm-armcortex.instrset/win/bin/../lib/gcc/arm-none-eabi/13.2.1/thumb/v7e-m+fp/hard\libg_nano.a(libc_a-stdio.o)
 .debug_frame   0x00000000       0x88 C:/ProgramData/MATLAB/SupportPackages/R2025b/3P.instrset/gnuarm-armcortex.instrset/win/bin/../lib/gcc/arm-none-eabi/13.2.1/thumb/v7e-m+fp/hard\libg_nano.a(libc_a-stdio.o)
 .ARM.attributes
                0x00000000       0x34 C:/ProgramData/MATLAB/SupportPackages/R2025b/3P.instrset/gnuarm-armcortex.instrset/win/bin/../lib/gcc/arm-none-eabi/13.2.1/thumb/v7e-m+fp/hard\libg_nano.a(libc_a-stdio.o)
 .text          0x00000000        0x0 C:/ProgramData/MATLAB/SupportPackages/R2025b/3P.instrset/gnuarm-armcortex.instrset/win/bin/../lib/gcc/arm-none-eabi/13.2.1/thumb/v7e-m+fp/hard\libg_nano.a(libc_a-memset.o)
 .data          0x00000000        0x0 C:/ProgramData/MATLAB/SupportPackages/R2025b/3P.instrset/gnuarm-armcortex.instrset/win/bin/../lib/gcc/arm-none-eabi/13.2.1/thumb/v7e-m+fp/hard\libg_nano.a(libc_a-memset.o)
 .bss           0x00000000        0x0 C:/ProgramData/MATLAB/SupportPackages/R2025b/3P.instrset/gnuarm-armcortex.instrset/win/bin/../lib/gcc/arm-none-eabi/13.2.1/thumb/v7e-m+fp/hard\libg_nano.a(libc_a-memset.o)
 .text          0x00000000        0x0 C:/ProgramData/MATLAB/SupportPackages/R2025b/3P.instrset/gnuarm-armcortex.instrset/win/bin/../lib/gcc/arm-none-eabi/13.2.1/thumb/v7e-m+fp/hard\libg_nano.a(libc_a-closer.o)
 .data          0x00000000        0x0 C:/ProgramData/MATLAB/SupportPackages/R2025b/3P.instrset/gnuarm-armcortex.instrset/win/bin/../lib/gcc/arm-none-eabi/13.2.1/thumb/v7e-m+fp/hard\libg_nano.a(libc_a-closer.o)
 .bss           0x00000000        0x0 C:/ProgramData/MATLAB/SupportPackages/R2025b/3P.instrset/gnuarm-armcortex.instrset/win/bin/../lib/gcc/arm-none-eabi/13.2.1/thumb/v7e-m+fp/hard\libg_nano.a(libc_a-closer.o)
 .text._close_r
                0x00000000       0x20 C:/ProgramData/MATLAB/SupportPackages/R2025b/3P.instrset/gnuarm-armcortex.instrset/win/bin/../lib/gcc/arm-none-eabi/13.2.1/thumb/v7e-m+fp/hard\libg_nano.a(libc_a-closer.o)
 .debug_frame   0x00000000       0x2c C:/ProgramData/MATLAB/SupportPackages/R2025b/3P.instrset/gnuarm-armcortex.instrset/win/bin/../lib/gcc/arm-none-eabi/13.2.1/thumb/v7e-m+fp/hard\libg_nano.a(libc_a-closer.o)
 .ARM.attributes
                0x00000000       0x34 C:/ProgramData/MATLAB/SupportPackages/R2025b/3P.instrset/gnuarm-armcortex.instrset/win/bin/../lib/gcc/arm-none-eabi/13.2.1/thumb/v7e-m+fp/hard\libg_nano.a(libc_a-closer.o)
 .text          0x00000000        0x0 C:/ProgramData/MATLAB/SupportPackages/R2025b/3P.instrset/gnuarm-armcortex.instrset/win/bin/../lib/gcc/arm-none-eabi/13.2.1/thumb/v7e-m+fp/hard\libg_nano.a(libc_a-reent.o)
 .data          0x00000000        0x0 C:/ProgramData/MATLAB/SupportPackages/R2025b/3P.instrset/gnuarm-armcortex.instrset/win/bin/../lib/gcc/arm-none-eabi/13.2.1/thumb/v7e-m+fp/hard\libg_nano.a(libc_a-reent.o)
 .bss           0x00000000        0x0 C:/ProgramData/MATLAB/SupportPackages/R2025b/3P.instrset/gnuarm-armcortex.instrset/win/bin/../lib/gcc/arm-none-eabi/13.2.1/thumb/v7e-m+fp/hard\libg_nano.a(libc_a-reent.o)
 .text._reclaim_reent
                0x00000000       0xac C:/ProgramData/MATLAB/SupportPackages/R2025b/3P.instrset/gnuarm-armcortex.instrset/win/bin/../lib/gcc/arm-none-eabi/13.2.1/thumb/v7e-m+fp/hard\libg_nano.a(libc_a-reent.o)
 .bss.errno     0x00000000        0x4 C:/ProgramData/MATLAB/SupportPackages/R2025b/3P.instrset/gnuarm-armcortex.instrset/win/bin/../lib/gcc/arm-none-eabi/13.2.1/thumb/v7e-m+fp/hard\libg_nano.a(libc_a-reent.o)
 .debug_frame   0x00000000       0x38 C:/ProgramData/MATLAB/SupportPackages/R2025b/3P.instrset/gnuarm-armcortex.instrset/win/bin/../lib/gcc/arm-none-eabi/13.2.1/thumb/v7e-m+fp/hard\libg_nano.a(libc_a-reent.o)
 .ARM.attributes
                0x00000000       0x34 C:/ProgramData/MATLAB/SupportPackages/R2025b/3P.instrset/gnuarm-armcortex.instrset/win/bin/../lib/gcc/arm-none-eabi/13.2.1/thumb/v7e-m+fp/hard\libg_nano.a(libc_a-reent.o)
 .text          0x00000000        0x0 C:/ProgramData/MATLAB/SupportPackages/R2025b/3P.instrset/gnuarm-armcortex.instrset/win/bin/../lib/gcc/arm-none-eabi/13.2.1/thumb/v7e-m+fp/hard\libg_nano.a(libc_a-impure.o)
 .data          0x00000000        0x0 C:/ProgramData/MATLAB/SupportPackages/R2025b/3P.instrset/gnuarm-armcortex.instrset/win/bin/../lib/gcc/arm-none-eabi/13.2.1/thumb/v7e-m+fp/hard\libg_nano.a(libc_a-impure.o)
 .bss           0x00000000        0x0 C:/ProgramData/MATLAB/SupportPackages/R2025b/3P.instrset/gnuarm-armcortex.instrset/win/bin/../lib/gcc/arm-none-eabi/13.2.1/thumb/v7e-m+fp/hard\libg_nano.a(libc_a-impure.o)
 .text          0x00000000        0x0 C:/ProgramData/MATLAB/SupportPackages/R2025b/3P.instrset/gnuarm-armcortex.instrset/win/bin/../lib/gcc/arm-none-eabi/13.2.1/thumb/v7e-m+fp/hard\libg_nano.a(libc_a-lseekr.o)
 .data          0x00000000        0x0 C:/ProgramData/MATLAB/SupportPackages/R2025b/3P.instrset/gnuarm-armcortex.instrset/win/bin/../lib/gcc/arm-none-eabi/13.2.1/thumb/v7e-m+fp/hard\libg_nano.a(libc_a-lseekr.o)
 .bss           0x00000000        0x0 C:/ProgramData/MATLAB/SupportPackages/R2025b/3P.instrset/gnuarm-armcortex.instrset/win/bin/../lib/gcc/arm-none-eabi/13.2.1/thumb/v7e-m+fp/hard\libg_nano.a(libc_a-lseekr.o)
 .text._lseek_r
                0x00000000       0x24 C:/ProgramData/MATLAB/SupportPackages/R2025b/3P.instrset/gnuarm-armcortex.instrset/win/bin/../lib/gcc/arm-none-eabi/13.2.1/thumb/v7e-m+fp/hard\libg_nano.a(libc_a-lseekr.o)
 .debug_frame   0x00000000       0x2c C:/ProgramData/MATLAB/SupportPackages/R2025b/3P.instrset/gnuarm-armcortex.instrset/win/bin/../lib/gcc/arm-none-eabi/13.2.1/thumb/v7e-m+fp/hard\libg_nano.a(libc_a-lseekr.o)
 .ARM.attributes
                0x00000000       0x34 C:/ProgramData/MATLAB/SupportPackages/R2025b/3P.instrset/gnuarm-armcortex.instrset/win/bin/../lib/gcc/arm-none-eabi/13.2.1/thumb/v7e-m+fp/hard\libg_nano.a(libc_a-lseekr.o)
 .text          0x00000000        0x0 C:/ProgramData/MATLAB/SupportPackages/R2025b/3P.instrset/gnuarm-armcortex.instrset/win/bin/../lib/gcc/arm-none-eabi/13.2.1/thumb/v7e-m+fp/hard\libg_nano.a(libc_a-readr.o)
 .data          0x00000000        0x0 C:/ProgramData/MATLAB/SupportPackages/R2025b/3P.instrset/gnuarm-armcortex.instrset/win/bin/../lib/gcc/arm-none-eabi/13.2.1/thumb/v7e-m+fp/hard\libg_nano.a(libc_a-readr.o)
 .bss           0x00000000        0x0 C:/ProgramData/MATLAB/SupportPackages/R2025b/3P.instrset/gnuarm-armcortex.instrset/win/bin/../lib/gcc/arm-none-eabi/13.2.1/thumb/v7e-m+fp/hard\libg_nano.a(libc_a-readr.o)
 .text._read_r  0x00000000       0x24 C:/ProgramData/MATLAB/SupportPackages/R2025b/3P.instrset/gnuarm-armcortex.instrset/win/bin/../lib/gcc/arm-none-eabi/13.2.1/thumb/v7e-m+fp/hard\libg_nano.a(libc_a-readr.o)
 .debug_frame   0x00000000       0x2c C:/ProgramData/MATLAB/SupportPackages/R2025b/3P.instrset/gnuarm-armcortex.instrset/win/bin/../lib/gcc/arm-none-eabi/13.2.1/thumb/v7e-m+fp/hard\libg_nano.a(libc_a-readr.o)
 .ARM.attributes
                0x00000000       0x34 C:/ProgramData/MATLAB/SupportPackages/R2025b/3P.instrset/gnuarm-armcortex.instrset/win/bin/../lib/gcc/arm-none-eabi/13.2.1/thumb/v7e-m+fp/hard\libg_nano.a(libc_a-readr.o)
 .text          0x00000000        0x0 C:/ProgramData/MATLAB/SupportPackages/R2025b/3P.instrset/gnuarm-armcortex.instrset/win/bin/../lib/gcc/arm-none-eabi/13.2.1/thumb/v7e-m+fp/hard\libg_nano.a(libc_a-writer.o)
 .data          0x00000000        0x0 C:/ProgramData/MATLAB/SupportPackages/R2025b/3P.instrset/gnuarm-armcortex.instrset/win/bin/../lib/gcc/arm-none-eabi/13.2.1/thumb/v7e-m+fp/hard\libg_nano.a(libc_a-writer.o)
 .bss           0x00000000        0x0 C:/ProgramData/MATLAB/SupportPackages/R2025b/3P.instrset/gnuarm-armcortex.instrset/win/bin/../lib/gcc/arm-none-eabi/13.2.1/thumb/v7e-m+fp/hard\libg_nano.a(libc_a-writer.o)
 .text._write_r
                0x00000000       0x24 C:/ProgramData/MATLAB/SupportPackages/R2025b/3P.instrset/gnuarm-armcortex.instrset/win/bin/../lib/gcc/arm-none-eabi/13.2.1/thumb/v7e-m+fp/hard\libg_nano.a(libc_a-writer.o)
 .debug_frame   0x00000000       0x2c C:/ProgramData/MATLAB/SupportPackages/R2025b/3P.instrset/gnuarm-armcortex.instrset/win/bin/../lib/gcc/arm-none-eabi/13.2.1/thumb/v7e-m+fp/hard\libg_nano.a(libc_a-writer.o)
 .ARM.attributes
                0x00000000       0x34 C:/ProgramData/MATLAB/SupportPackages/R2025b/3P.instrset/gnuarm-armcortex.instrset/win/bin/../lib/gcc/arm-none-eabi/13.2.1/thumb/v7e-m+fp/hard\libg_nano.a(libc_a-writer.o)
 .text          0x00000000        0x0 C:/ProgramData/MATLAB/SupportPackages/R2025b/3P.instrset/gnuarm-armcortex.instrset/win/bin/../lib/gcc/arm-none-eabi/13.2.1/thumb/v7e-m+fp/hard\libg_nano.a(libc_a-errno.o)
 .data          0x00000000        0x0 C:/ProgramData/MATLAB/SupportPackages/R2025b/3P.instrset/gnuarm-armcortex.instrset/win/bin/../lib/gcc/arm-none-eabi/13.2.1/thumb/v7e-m+fp/hard\libg_nano.a(libc_a-errno.o)
 .bss           0x00000000        0x0 C:/ProgramData/MATLAB/SupportPackages/R2025b/3P.instrset/gnuarm-armcortex.instrset/win/bin/../lib/gcc/arm-none-eabi/13.2.1/thumb/v7e-m+fp/hard\libg_nano.a(libc_a-errno.o)
 .text          0x00000000        0x0 C:/ProgramData/MATLAB/SupportPackages/R2025b/3P.instrset/gnuarm-armcortex.instrset/win/bin/../lib/gcc/arm-none-eabi/13.2.1/thumb/v7e-m+fp/hard\libg_nano.a(libc_a-init.o)
 .data          0x00000000        0x0 C:/ProgramData/MATLAB/SupportPackages/R2025b/3P.instrset/gnuarm-armcortex.instrset/win/bin/../lib/gcc/arm-none-eabi/13.2.1/thumb/v7e-m+fp/hard\libg_nano.a(libc_a-init.o)
 .bss           0x00000000        0x0 C:/ProgramData/MATLAB/SupportPackages/R2025b/3P.instrset/gnuarm-armcortex.instrset/win/bin/../lib/gcc/arm-none-eabi/13.2.1/thumb/v7e-m+fp/hard\libg_nano.a(libc_a-init.o)
 .text          0x00000000        0x0 C:/ProgramData/MATLAB/SupportPackages/R2025b/3P.instrset/gnuarm-armcortex.instrset/win/bin/../lib/gcc/arm-none-eabi/13.2.1/thumb/v7e-m+fp/hard\libg_nano.a(libc_a-lock.o)
 .data          0x00000000        0x0 C:/ProgramData/MATLAB/SupportPackages/R2025b/3P.instrset/gnuarm-armcortex.instrset/win/bin/../lib/gcc/arm-none-eabi/13.2.1/thumb/v7e-m+fp/hard\libg_nano.a(libc_a-lock.o)
 .bss           0x00000000        0x0 C:/ProgramData/MATLAB/SupportPackages/R2025b/3P.instrset/gnuarm-armcortex.instrset/win/bin/../lib/gcc/arm-none-eabi/13.2.1/thumb/v7e-m+fp/hard\libg_nano.a(libc_a-lock.o)
 .text.__retarget_lock_init
                0x00000000        0x2 C:/ProgramData/MATLAB/SupportPackages/R2025b/3P.instrset/gnuarm-armcortex.instrset/win/bin/../lib/gcc/arm-none-eabi/13.2.1/thumb/v7e-m+fp/hard\libg_nano.a(libc_a-lock.o)
 .text.__retarget_lock_init_recursive
                0x00000000        0x2 C:/ProgramData/MATLAB/SupportPackages/R2025b/3P.instrset/gnuarm-armcortex.instrset/win/bin/../lib/gcc/arm-none-eabi/13.2.1/thumb/v7e-m+fp/hard\libg_nano.a(libc_a-lock.o)
 .text.__retarget_lock_close
                0x00000000        0x2 C:/ProgramData/MATLAB/SupportPackages/R2025b/3P.instrset/gnuarm-armcortex.instrset/win/bin/../lib/gcc/arm-none-eabi/13.2.1/thumb/v7e-m+fp/hard\libg_nano.a(libc_a-lock.o)
 .text.__retarget_lock_close_recursive
                0x00000000        0x2 C:/ProgramData/MATLAB/SupportPackages/R2025b/3P.instrset/gnuarm-armcortex.instrset/win/bin/../lib/gcc/arm-none-eabi/13.2.1/thumb/v7e-m+fp/hard\libg_nano.a(libc_a-lock.o)
 .text.__retarget_lock_acquire
                0x00000000        0x2 C:/ProgramData/MATLAB/SupportPackages/R2025b/3P.instrset/gnuarm-armcortex.instrset/win/bin/../lib/gcc/arm-none-eabi/13.2.1/thumb/v7e-m+fp/hard\libg_nano.a(libc_a-lock.o)
 .text.__retarget_lock_acquire_recursive
                0x00000000        0x2 C:/ProgramData/MATLAB/SupportPackages/R2025b/3P.instrset/gnuarm-armcortex.instrset/win/bin/../lib/gcc/arm-none-eabi/13.2.1/thumb/v7e-m+fp/hard\libg_nano.a(libc_a-lock.o)
 .text.__retarget_lock_try_acquire
                0x00000000        0x4 C:/ProgramData/MATLAB/SupportPackages/R2025b/3P.instrset/gnuarm-armcortex.instrset/win/bin/../lib/gcc/arm-none-eabi/13.2.1/thumb/v7e-m+fp/hard\libg_nano.a(libc_a-lock.o)
 .text.__retarget_lock_try_acquire_recursive
                0x00000000        0x4 C:/ProgramData/MATLAB/SupportPackages/R2025b/3P.instrset/gnuarm-armcortex.instrset/win/bin/../lib/gcc/arm-none-eabi/13.2.1/thumb/v7e-m+fp/hard\libg_nano.a(libc_a-lock.o)
 .text.__retarget_lock_release
                0x00000000        0x2 C:/ProgramData/MATLAB/SupportPackages/R2025b/3P.instrset/gnuarm-armcortex.instrset/win/bin/../lib/gcc/arm-none-eabi/13.2.1/thumb/v7e-m+fp/hard\libg_nano.a(libc_a-lock.o)
 .text.__retarget_lock_release_recursive
                0x00000000        0x2 C:/ProgramData/MATLAB/SupportPackages/R2025b/3P.instrset/gnuarm-armcortex.instrset/win/bin/../lib/gcc/arm-none-eabi/13.2.1/thumb/v7e-m+fp/hard\libg_nano.a(libc_a-lock.o)
 .bss.__lock___arc4random_mutex
                0x00000000        0x1 C:/ProgramData/MATLAB/SupportPackages/R2025b/3P.instrset/gnuarm-armcortex.instrset/win/bin/../lib/gcc/arm-none-eabi/13.2.1/thumb/v7e-m+fp/hard\libg_nano.a(libc_a-lock.o)
 .bss.__lock___dd_hash_mutex
                0x00000000        0x1 C:/ProgramData/MATLAB/SupportPackages/R2025b/3P.instrset/gnuarm-armcortex.instrset/win/bin/../lib/gcc/arm-none-eabi/13.2.1/thumb/v7e-m+fp/hard\libg_nano.a(libc_a-lock.o)
 .bss.__lock___tz_mutex
                0x00000000        0x1 C:/ProgramData/MATLAB/SupportPackages/R2025b/3P.instrset/gnuarm-armcortex.instrset/win/bin/../lib/gcc/arm-none-eabi/13.2.1/thumb/v7e-m+fp/hard\libg_nano.a(libc_a-lock.o)
 .bss.__lock___env_recursive_mutex
                0x00000000        0x1 C:/ProgramData/MATLAB/SupportPackages/R2025b/3P.instrset/gnuarm-armcortex.instrset/win/bin/../lib/gcc/arm-none-eabi/13.2.1/thumb/v7e-m+fp/hard\libg_nano.a(libc_a-lock.o)
 .bss.__lock___malloc_recursive_mutex
                0x00000000        0x1 C:/ProgramData/MATLAB/SupportPackages/R2025b/3P.instrset/gnuarm-armcortex.instrset/win/bin/../lib/gcc/arm-none-eabi/13.2.1/thumb/v7e-m+fp/hard\libg_nano.a(libc_a-lock.o)
 .bss.__lock___at_quick_exit_mutex
                0x00000000        0x1 C:/ProgramData/MATLAB/SupportPackages/R2025b/3P.instrset/gnuarm-armcortex.instrset/win/bin/../lib/gcc/arm-none-eabi/13.2.1/thumb/v7e-m+fp/hard\libg_nano.a(libc_a-lock.o)
 .bss.__lock___atexit_recursive_mutex
                0x00000000        0x1 C:/ProgramData/MATLAB/SupportPackages/R2025b/3P.instrset/gnuarm-armcortex.instrset/win/bin/../lib/gcc/arm-none-eabi/13.2.1/thumb/v7e-m+fp/hard\libg_nano.a(libc_a-lock.o)
 .bss.__lock___sfp_recursive_mutex
                0x00000000        0x1 C:/ProgramData/MATLAB/SupportPackages/R2025b/3P.instrset/gnuarm-armcortex.instrset/win/bin/../lib/gcc/arm-none-eabi/13.2.1/thumb/v7e-m+fp/hard\libg_nano.a(libc_a-lock.o)
 .debug_frame   0x00000000       0xb0 C:/ProgramData/MATLAB/SupportPackages/R2025b/3P.instrset/gnuarm-armcortex.instrset/win/bin/../lib/gcc/arm-none-eabi/13.2.1/thumb/v7e-m+fp/hard\libg_nano.a(libc_a-lock.o)
 .ARM.attributes
                0x00000000       0x34 C:/ProgramData/MATLAB/SupportPackages/R2025b/3P.instrset/gnuarm-armcortex.instrset/win/bin/../lib/gcc/arm-none-eabi/13.2.1/thumb/v7e-m+fp/hard\libg_nano.a(libc_a-lock.o)
 .text          0x00000000        0x0 C:/ProgramData/MATLAB/SupportPackages/R2025b/3P.instrset/gnuarm-armcortex.instrset/win/bin/../lib/gcc/arm-none-eabi/13.2.1/thumb/v7e-m+fp/hard\libg_nano.a(libc_a-memcpy-stub.o)
 .data          0x00000000        0x0 C:/ProgramData/MATLAB/SupportPackages/R2025b/3P.instrset/gnuarm-armcortex.instrset/win/bin/../lib/gcc/arm-none-eabi/13.2.1/thumb/v7e-m+fp/hard\libg_nano.a(libc_a-memcpy-stub.o)
 .bss           0x00000000        0x0 C:/ProgramData/MATLAB/SupportPackages/R2025b/3P.instrset/gnuarm-armcortex.instrset/win/bin/../lib/gcc/arm-none-eabi/13.2.1/thumb/v7e-m+fp/hard\libg_nano.a(libc_a-memcpy-stub.o)
 .text          0x00000000        0x0 C:/ProgramData/MATLAB/SupportPackages/R2025b/3P.instrset/gnuarm-armcortex.instrset/win/bin/../lib/gcc/arm-none-eabi/13.2.1/thumb/v7e-m+fp/hard\libg_nano.a(libc_a-freer.o)
 .data          0x00000000        0x0 C:/ProgramData/MATLAB/SupportPackages/R2025b/3P.instrset/gnuarm-armcortex.instrset/win/bin/../lib/gcc/arm-none-eabi/13.2.1/thumb/v7e-m+fp/hard\libg_nano.a(libc_a-freer.o)
 .bss           0x00000000        0x0 C:/ProgramData/MATLAB/SupportPackages/R2025b/3P.instrset/gnuarm-armcortex.instrset/win/bin/../lib/gcc/arm-none-eabi/13.2.1/thumb/v7e-m+fp/hard\libg_nano.a(libc_a-freer.o)
 .text._free_r  0x00000000       0x94 C:/ProgramData/MATLAB/SupportPackages/R2025b/3P.instrset/gnuarm-armcortex.instrset/win/bin/../lib/gcc/arm-none-eabi/13.2.1/thumb/v7e-m+fp/hard\libg_nano.a(libc_a-freer.o)
 .debug_frame   0x00000000       0x38 C:/ProgramData/MATLAB/SupportPackages/R2025b/3P.instrset/gnuarm-armcortex.instrset/win/bin/../lib/gcc/arm-none-eabi/13.2.1/thumb/v7e-m+fp/hard\libg_nano.a(libc_a-freer.o)
 .ARM.attributes
                0x00000000       0x34 C:/ProgramData/MATLAB/SupportPackages/R2025b/3P.instrset/gnuarm-armcortex.instrset/win/bin/../lib/gcc/arm-none-eabi/13.2.1/thumb/v7e-m+fp/hard\libg_nano.a(libc_a-freer.o)
 .text          0x00000000        0x0 C:/ProgramData/MATLAB/SupportPackages/R2025b/3P.instrset/gnuarm-armcortex.instrset/win/bin/../lib/gcc/arm-none-eabi/13.2.1/thumb/v7e-m+fp/hard\libg_nano.a(libc_a-mallocr.o)
 .data          0x00000000        0x0 C:/ProgramData/MATLAB/SupportPackages/R2025b/3P.instrset/gnuarm-armcortex.instrset/win/bin/../lib/gcc/arm-none-eabi/13.2.1/thumb/v7e-m+fp/hard\libg_nano.a(libc_a-mallocr.o)
 .bss           0x00000000        0x0 C:/ProgramData/MATLAB/SupportPackages/R2025b/3P.instrset/gnuarm-armcortex.instrset/win/bin/../lib/gcc/arm-none-eabi/13.2.1/thumb/v7e-m+fp/hard\libg_nano.a(libc_a-mallocr.o)
 .text.sbrk_aligned
                0x00000000       0x44 C:/ProgramData/MATLAB/SupportPackages/R2025b/3P.instrset/gnuarm-armcortex.instrset/win/bin/../lib/gcc/arm-none-eabi/13.2.1/thumb/v7e-m+fp/hard\libg_nano.a(libc_a-mallocr.o)
 .text._malloc_r
                0x00000000      0x100 C:/ProgramData/MATLAB/SupportPackages/R2025b/3P.instrset/gnuarm-armcortex.instrset/win/bin/../lib/gcc/arm-none-eabi/13.2.1/thumb/v7e-m+fp/hard\libg_nano.a(libc_a-mallocr.o)
 .bss.__malloc_sbrk_start
                0x00000000        0x4 C:/ProgramData/MATLAB/SupportPackages/R2025b/3P.instrset/gnuarm-armcortex.instrset/win/bin/../lib/gcc/arm-none-eabi/13.2.1/thumb/v7e-m+fp/hard\libg_nano.a(libc_a-mallocr.o)
 .bss.__malloc_free_list
                0x00000000        0x4 C:/ProgramData/MATLAB/SupportPackages/R2025b/3P.instrset/gnuarm-armcortex.instrset/win/bin/../lib/gcc/arm-none-eabi/13.2.1/thumb/v7e-m+fp/hard\libg_nano.a(libc_a-mallocr.o)
 .debug_frame   0x00000000       0x50 C:/ProgramData/MATLAB/SupportPackages/R2025b/3P.instrset/gnuarm-armcortex.instrset/win/bin/../lib/gcc/arm-none-eabi/13.2.1/thumb/v7e-m+fp/hard\libg_nano.a(libc_a-mallocr.o)
 .ARM.attributes
                0x00000000       0x34 C:/ProgramData/MATLAB/SupportPackages/R2025b/3P.instrset/gnuarm-armcortex.instrset/win/bin/../lib/gcc/arm-none-eabi/13.2.1/thumb/v7e-m+fp/hard\libg_nano.a(libc_a-mallocr.o)
 .text          0x00000000        0x0 C:/ProgramData/MATLAB/SupportPackages/R2025b/3P.instrset/gnuarm-armcortex.instrset/win/bin/../lib/gcc/arm-none-eabi/13.2.1/thumb/v7e-m+fp/hard\libg_nano.a(libc_a-mlock.o)
 .data          0x00000000        0x0 C:/ProgramData/MATLAB/SupportPackages/R2025b/3P.instrset/gnuarm-armcortex.instrset/win/bin/../lib/gcc/arm-none-eabi/13.2.1/thumb/v7e-m+fp/hard\libg_nano.a(libc_a-mlock.o)
 .bss           0x00000000        0x0 C:/ProgramData/MATLAB/SupportPackages/R2025b/3P.instrset/gnuarm-armcortex.instrset/win/bin/../lib/gcc/arm-none-eabi/13.2.1/thumb/v7e-m+fp/hard\libg_nano.a(libc_a-mlock.o)
 .text.__malloc_lock
                0x00000000        0xc C:/ProgramData/MATLAB/SupportPackages/R2025b/3P.instrset/gnuarm-armcortex.instrset/win/bin/../lib/gcc/arm-none-eabi/13.2.1/thumb/v7e-m+fp/hard\libg_nano.a(libc_a-mlock.o)
 .text.__malloc_unlock
                0x00000000        0xc C:/ProgramData/MATLAB/SupportPackages/R2025b/3P.instrset/gnuarm-armcortex.instrset/win/bin/../lib/gcc/arm-none-eabi/13.2.1/thumb/v7e-m+fp/hard\libg_nano.a(libc_a-mlock.o)
 .debug_frame   0x00000000       0x30 C:/ProgramData/MATLAB/SupportPackages/R2025b/3P.instrset/gnuarm-armcortex.instrset/win/bin/../lib/gcc/arm-none-eabi/13.2.1/thumb/v7e-m+fp/hard\libg_nano.a(libc_a-mlock.o)
 .ARM.attributes
                0x00000000       0x34 C:/ProgramData/MATLAB/SupportPackages/R2025b/3P.instrset/gnuarm-armcortex.instrset/win/bin/../lib/gcc/arm-none-eabi/13.2.1/thumb/v7e-m+fp/hard\libg_nano.a(libc_a-mlock.o)
 .text          0x00000000        0x0 C:/ProgramData/MATLAB/SupportPackages/R2025b/3P.instrset/gnuarm-armcortex.instrset/win/bin/../lib/gcc/arm-none-eabi/13.2.1/thumb/v7e-m+fp/hard\libg_nano.a(libc_a-fflush.o)
 .data          0x00000000        0x0 C:/ProgramData/MATLAB/SupportPackages/R2025b/3P.instrset/gnuarm-armcortex.instrset/win/bin/../lib/gcc/arm-none-eabi/13.2.1/thumb/v7e-m+fp/hard\libg_nano.a(libc_a-fflush.o)
 .bss           0x00000000        0x0 C:/ProgramData/MATLAB/SupportPackages/R2025b/3P.instrset/gnuarm-armcortex.instrset/win/bin/../lib/gcc/arm-none-eabi/13.2.1/thumb/v7e-m+fp/hard\libg_nano.a(libc_a-fflush.o)
 .text.__sflush_r
                0x00000000      0x108 C:/ProgramData/MATLAB/SupportPackages/R2025b/3P.instrset/gnuarm-armcortex.instrset/win/bin/../lib/gcc/arm-none-eabi/13.2.1/thumb/v7e-m+fp/hard\libg_nano.a(libc_a-fflush.o)
 .text._fflush_r
                0x00000000       0x50 C:/ProgramData/MATLAB/SupportPackages/R2025b/3P.instrset/gnuarm-armcortex.instrset/win/bin/../lib/gcc/arm-none-eabi/13.2.1/thumb/v7e-m+fp/hard\libg_nano.a(libc_a-fflush.o)
 .text.fflush   0x00000000       0x28 C:/ProgramData/MATLAB/SupportPackages/R2025b/3P.instrset/gnuarm-armcortex.instrset/win/bin/../lib/gcc/arm-none-eabi/13.2.1/thumb/v7e-m+fp/hard\libg_nano.a(libc_a-fflush.o)
 .debug_frame   0x00000000       0x5c C:/ProgramData/MATLAB/SupportPackages/R2025b/3P.instrset/gnuarm-armcortex.instrset/win/bin/../lib/gcc/arm-none-eabi/13.2.1/thumb/v7e-m+fp/hard\libg_nano.a(libc_a-fflush.o)
 .ARM.attributes
                0x00000000       0x34 C:/ProgramData/MATLAB/SupportPackages/R2025b/3P.instrset/gnuarm-armcortex.instrset/win/bin/../lib/gcc/arm-none-eabi/13.2.1/thumb/v7e-m+fp/hard\libg_nano.a(libc_a-fflush.o)
 .text          0x00000000        0x0 C:/ProgramData/MATLAB/SupportPackages/R2025b/3P.instrset/gnuarm-armcortex.instrset/win/bin/../lib/gcc/arm-none-eabi/13.2.1/thumb/v7e-m+fp/hard\libg_nano.a(libc_a-sbrkr.o)
 .data          0x00000000        0x0 C:/ProgramData/MATLAB/SupportPackages/R2025b/3P.instrset/gnuarm-armcortex.instrset/win/bin/../lib/gcc/arm-none-eabi/13.2.1/thumb/v7e-m+fp/hard\libg_nano.a(libc_a-sbrkr.o)
 .bss           0x00000000        0x0 C:/ProgramData/MATLAB/SupportPackages/R2025b/3P.instrset/gnuarm-armcortex.instrset/win/bin/../lib/gcc/arm-none-eabi/13.2.1/thumb/v7e-m+fp/hard\libg_nano.a(libc_a-sbrkr.o)
 .text._sbrk_r  0x00000000       0x20 C:/ProgramData/MATLAB/SupportPackages/R2025b/3P.instrset/gnuarm-armcortex.instrset/win/bin/../lib/gcc/arm-none-eabi/13.2.1/thumb/v7e-m+fp/hard\libg_nano.a(libc_a-sbrkr.o)
 .debug_frame   0x00000000       0x2c C:/ProgramData/MATLAB/SupportPackages/R2025b/3P.instrset/gnuarm-armcortex.instrset/win/bin/../lib/gcc/arm-none-eabi/13.2.1/thumb/v7e-m+fp/hard\libg_nano.a(libc_a-sbrkr.o)
 .ARM.attributes
                0x00000000       0x34 C:/ProgramData/MATLAB/SupportPackages/R2025b/3P.instrset/gnuarm-armcortex.instrset/win/bin/../lib/gcc/arm-none-eabi/13.2.1/thumb/v7e-m+fp/hard\libg_nano.a(libc_a-sbrkr.o)
 .text          0x00000000        0x0 C:/ProgramData/MATLAB/SupportPackages/R2025b/3P.instrset/gnuarm-armcortex.instrset/win/bin/../lib/gcc/arm-none-eabi/13.2.1/thumb/v7e-m+fp/hard/crtend.o
 .data          0x00000000        0x0 C:/ProgramData/MATLAB/SupportPackages/R2025b/3P.instrset/gnuarm-armcortex.instrset/win/bin/../lib/gcc/arm-none-eabi/13.2.1/thumb/v7e-m+fp/hard/crtend.o
 .bss           0x00000000        0x0 C:/ProgramData/MATLAB/SupportPackages/R2025b/3P.instrset/gnuarm-armcortex.instrset/win/bin/../lib/gcc/arm-none-eabi/13.2.1/thumb/v7e-m+fp/hard/crtend.o
 .rodata.all_implied_fbits
                0x00000000       0x24 C:/ProgramData/MATLAB/SupportPackages/R2025b/3P.instrset/gnuarm-armcortex.instrset/win/bin/../lib/gcc/arm-none-eabi/13.2.1/thumb/v7e-m+fp/hard/crtend.o
 .eh_frame      0x00000000        0x4 C:/ProgramData/MATLAB/SupportPackages/R2025b/3P.instrset/gnuarm-armcortex.instrset/win/bin/../lib/gcc/arm-none-eabi/13.2.1/thumb/v7e-m+fp/hard/crtend.o
 .text          0x00000000        0x0 C:/ProgramData/MATLAB/SupportPackages/R2025b/3P.instrset/gnuarm-armcortex.instrset/win/bin/../lib/gcc/arm-none-eabi/13.2.1/thumb/v7e-m+fp/hard/crtn.o
 .data          0x00000000        0x0 C:/ProgramData/MATLAB/SupportPackages/R2025b/3P.instrset/gnuarm-armcortex.instrset/win/bin/../lib/gcc/arm-none-eabi/13.2.1/thumb/v7e-m+fp/hard/crtn.o
 .bss           0x00000000        0x0 C:/ProgramData/MATLAB/SupportPackages/R2025b/3P.instrset/gnuarm-armcortex.instrset/win/bin/../lib/gcc/arm-none-eabi/13.2.1/thumb/v7e-m+fp/hard/crtn.o

Memory Configuration

Name             Origin             Length             Attributes
RAM              0x20000000         0x00020000         xrw
FLASH            0x08000000         0x00080000         xr
*default*        0x00000000         0xffffffff

Linker script and memory map

LOAD C:/ProgramData/MATLAB/SupportPackages/R2025b/3P.instrset/gnuarm-armcortex.instrset/win/bin/../lib/gcc/arm-none-eabi/13.2.1/thumb/v7e-m+fp/hard/crti.o
LOAD C:/ProgramData/MATLAB/SupportPackages/R2025b/3P.instrset/gnuarm-armcortex.instrset/win/bin/../lib/gcc/arm-none-eabi/13.2.1/thumb/v7e-m+fp/hard/crtbegin.o
LOAD C:/ProgramData/MATLAB/SupportPackages/R2025b/3P.instrset/gnuarm-armcortex.instrset/win/bin/../lib/gcc/arm-none-eabi/13.2.1/thumb/v7e-m+fp/hard/crt0.o
LOAD mw_stm32_spi_ll.c.o
LOAD xcp_ext_mode.c.o
LOAD BMS_MCU_CODE.c.o
LOAD BMS_MCU_CODE_data.c.o
LOAD ert_main.c.o
LOAD xcp_ext_common.c.o
LOAD xcp_ext_classic_trigger.c.o
LOAD xcp.c.o
LOAD xcp_standard.c.o
LOAD xcp_daq.c.o
LOAD xcp_calibration.c.o
LOAD xcp_fifo.c.o
LOAD xcp_transport.c.o
LOAD xcp_mem_default.c.o
LOAD xcp_drv_rtiostream.c.o
LOAD xcp_utils.c.o
LOAD xcp_frame_serial.c.o
LOAD xcp_ext_param_default_serial.c.o
LOAD overrideHALDelay.c.o
LOAD platform_timer.c.o
LOAD SysTickScheduler.c.o
LOAD m3m4m4f_multitasking.c.o
LOAD rtiostream_serial.c.o
LOAD stm_usart.c.o
LOAD sys_arch_arm.c.o
LOAD main.c.o
LOAD stm32f4xx_it.c.o
LOAD stm32f4xx_hal_msp.c.o
LOAD stm32f4xx_hal_timebase_tim.c.o
LOAD stm32f4xx_hal_tim.c.o
LOAD stm32f4xx_hal_tim_ex.c.o
LOAD stm32f4xx_ll_gpio.c.o
LOAD stm32f4xx_ll_dma.c.o
LOAD stm32f4xx_ll_spi.c.o
LOAD stm32f4xx_ll_rcc.c.o
LOAD stm32f4xx_ll_utils.c.o
LOAD stm32f4xx_ll_exti.c.o
LOAD stm32f4xx_hal_rcc.c.o
LOAD stm32f4xx_hal_rcc_ex.c.o
LOAD stm32f4xx_hal_flash.c.o
LOAD stm32f4xx_hal_flash_ex.c.o
LOAD stm32f4xx_hal_flash_ramfunc.c.o
LOAD stm32f4xx_hal_gpio.c.o
LOAD stm32f4xx_hal_dma_ex.c.o
LOAD stm32f4xx_hal_dma.c.o
LOAD stm32f4xx_hal_pwr.c.o
LOAD stm32f4xx_hal_pwr_ex.c.o
LOAD stm32f4xx_hal_cortex.c.o
LOAD stm32f4xx_hal.c.o
LOAD stm32f4xx_hal_exti.c.o
LOAD stm32f4xx_ll_usart.c.o
LOAD system_stm32f4xx.c.o
LOAD syscalls.c.o
LOAD sysmem.c.o
LOAD startup_stm32f446retx.s.o
LOAD C:/ProgramData/MATLAB/SupportPackages/R2025b/3P.instrset/cmsis_dsp.instrset/Lib/GCC/arm_cortexm4ldfsp_math/libCMSISDSP.a
LOAD C:/ProgramData/MATLAB/SupportPackages/R2025b/toolbox/shared/supportpackages/stm32/lib/GCC/libmw_pdmfilter_m4_spfp.lib
LOAD C:/ProgramData/MATLAB/SupportPackages/R2025b/3P.instrset/gnuarm-armcortex.instrset/win/bin/../lib/gcc/arm-none-eabi/13.2.1/thumb/v7e-m+fp/hard\libstdc++_nano.a
LOAD C:/ProgramData/MATLAB/SupportPackages/R2025b/3P.instrset/gnuarm-armcortex.instrset/win/bin/../lib/gcc/arm-none-eabi/13.2.1/thumb/v7e-m+fp/hard\libm.a
START GROUP
LOAD C:/ProgramData/MATLAB/SupportPackages/R2025b/3P.instrset/gnuarm-armcortex.instrset/win/bin/../lib/gcc/arm-none-eabi/13.2.1/thumb/v7e-m+fp/hard\libgcc.a
LOAD C:/ProgramData/MATLAB/SupportPackages/R2025b/3P.instrset/gnuarm-armcortex.instrset/win/bin/../lib/gcc/arm-none-eabi/13.2.1/thumb/v7e-m+fp/hard\libg_nano.a
LOAD C:/ProgramData/MATLAB/SupportPackages/R2025b/3P.instrset/gnuarm-armcortex.instrset/win/bin/../lib/gcc/arm-none-eabi/13.2.1/thumb/v7e-m+fp/hard\libc_nano.a
END GROUP
START GROUP
LOAD C:/ProgramData/MATLAB/SupportPackages/R2025b/3P.instrset/gnuarm-armcortex.instrset/win/bin/../lib/gcc/arm-none-eabi/13.2.1/thumb/v7e-m+fp/hard\libgcc.a
LOAD C:/ProgramData/MATLAB/SupportPackages/R2025b/3P.instrset/gnuarm-armcortex.instrset/win/bin/../lib/gcc/arm-none-eabi/13.2.1/thumb/v7e-m+fp/hard\libc_nano.a
LOAD C:/ProgramData/MATLAB/SupportPackages/R2025b/3P.instrset/gnuarm-armcortex.instrset/win/bin/../lib/gcc/arm-none-eabi/13.2.1/thumb/v7e-m+fp/hard\libnosys.a
END GROUP
START GROUP
LOAD C:/ProgramData/MATLAB/SupportPackages/R2025b/3P.instrset/gnuarm-armcortex.instrset/win/bin/../lib/gcc/arm-none-eabi/13.2.1/thumb/v7e-m+fp/hard\libgcc.a
LOAD C:/ProgramData/MATLAB/SupportPackages/R2025b/3P.instrset/gnuarm-armcortex.instrset/win/bin/../lib/gcc/arm-none-eabi/13.2.1/thumb/v7e-m+fp/hard\libc_nano.a
LOAD C:/ProgramData/MATLAB/SupportPackages/R2025b/3P.instrset/gnuarm-armcortex.instrset/win/bin/../lib/gcc/arm-none-eabi/13.2.1/thumb/v7e-m+fp/hard\libnosys.a
END GROUP
LOAD C:/ProgramData/MATLAB/SupportPackages/R2025b/3P.instrset/gnuarm-armcortex.instrset/win/bin/../lib/gcc/arm-none-eabi/13.2.1/thumb/v7e-m+fp/hard/crtend.o
LOAD C:/ProgramData/MATLAB/SupportPackages/R2025b/3P.instrset/gnuarm-armcortex.instrset/win/bin/../lib/gcc/arm-none-eabi/13.2.1/thumb/v7e-m+fp/hard/crtn.o
                0x20020000                        _estack = (ORIGIN (RAM) + LENGTH (RAM))
                0x00000200                        _Min_Heap_Size = 0x200
                0x00000400                        _Min_Stack_Size = 0x400

.isr_vector     0x08000000      0x1c4
                0x08000000                        . = ALIGN (0x4)
 *(.isr_vector)
 .isr_vector    0x08000000      0x1c4 startup_stm32f446retx.s.o
                0x08000000                g_pfnVectors
                0x080001c4                        . = ALIGN (0x4)

.text           0x080001c8     0xcc64
                0x080001c8                        . = ALIGN (0x4)
 *(.text)
 .text          0x080001c8      0x378 C:/ProgramData/MATLAB/SupportPackages/R2025b/3P.instrset/gnuarm-armcortex.instrset/win/bin/../lib/gcc/arm-none-eabi/13.2.1/thumb/v7e-m+fp/hard\libgcc.a(_arm_addsubdf3.o)
                0x080001c8                __aeabi_drsub
                0x080001d0                __aeabi_dsub
                0x080001d0                __subdf3
                0x080001d4                __aeabi_dadd
                0x080001d4                __adddf3
                0x0800044c                __floatunsidf
                0x0800044c                __aeabi_ui2d
                0x0800046c                __floatsidf
                0x0800046c                __aeabi_i2d
                0x08000490                __aeabi_f2d
                0x08000490                __extendsfdf2
                0x080004d4                __floatundidf
                0x080004d4                __aeabi_ul2d
                0x080004e4                __floatdidf
                0x080004e4                __aeabi_l2d
 .text          0x08000540      0x424 C:/ProgramData/MATLAB/SupportPackages/R2025b/3P.instrset/gnuarm-armcortex.instrset/win/bin/../lib/gcc/arm-none-eabi/13.2.1/thumb/v7e-m+fp/hard\libgcc.a(_arm_muldivdf3.o)
                0x08000540                __aeabi_dmul
                0x08000540                __muldf3
                0x08000794                __divdf3
                0x08000794                __aeabi_ddiv
 .text          0x08000964      0x110 C:/ProgramData/MATLAB/SupportPackages/R2025b/3P.instrset/gnuarm-armcortex.instrset/win/bin/../lib/gcc/arm-none-eabi/13.2.1/thumb/v7e-m+fp/hard\libgcc.a(_arm_cmpdf2.o)
                0x08000964                __gtdf2
                0x08000964                __gedf2
                0x0800096c                __ltdf2
                0x0800096c                __ledf2
                0x08000974                __nedf2
                0x08000974                __eqdf2
                0x08000974                __cmpdf2
                0x080009f0                __aeabi_cdrcmple
                0x08000a00                __aeabi_cdcmpeq
                0x08000a00                __aeabi_cdcmple
                0x08000a10                __aeabi_dcmpeq
                0x08000a24                __aeabi_dcmplt
                0x08000a38                __aeabi_dcmple
                0x08000a4c                __aeabi_dcmpge
                0x08000a60                __aeabi_dcmpgt
 .text          0x08000a74       0x2c C:/ProgramData/MATLAB/SupportPackages/R2025b/3P.instrset/gnuarm-armcortex.instrset/win/bin/../lib/gcc/arm-none-eabi/13.2.1/thumb/v7e-m+fp/hard\libgcc.a(_arm_unorddf2.o)
                0x08000a74                __unorddf2
                0x08000a74                __aeabi_dcmpun
 .text          0x08000aa0       0x40 C:/ProgramData/MATLAB/SupportPackages/R2025b/3P.instrset/gnuarm-armcortex.instrset/win/bin/../lib/gcc/arm-none-eabi/13.2.1/thumb/v7e-m+fp/hard\libgcc.a(_arm_fixunsdfsi.o)
                0x08000aa0                __aeabi_d2uiz
                0x08000aa0                __fixunsdfsi
 .text          0x08000ae0       0x30 C:/ProgramData/MATLAB/SupportPackages/R2025b/3P.instrset/gnuarm-armcortex.instrset/win/bin/../lib/gcc/arm-none-eabi/13.2.1/thumb/v7e-m+fp/hard\libgcc.a(_aeabi_uldivmod.o)
                0x08000ae0                __aeabi_uldivmod
 .text          0x08000b10        0x4 C:/ProgramData/MATLAB/SupportPackages/R2025b/3P.instrset/gnuarm-armcortex.instrset/win/bin/../lib/gcc/arm-none-eabi/13.2.1/thumb/v7e-m+fp/hard\libgcc.a(_dvmd_tls.o)
                0x08000b10                __aeabi_idiv0
                0x08000b10                __aeabi_ldiv0
 *(.text*)
 .text.deregister_tm_clones
                0x08000b14       0x1c C:/ProgramData/MATLAB/SupportPackages/R2025b/3P.instrset/gnuarm-armcortex.instrset/win/bin/../lib/gcc/arm-none-eabi/13.2.1/thumb/v7e-m+fp/hard/crtbegin.o
 .text.register_tm_clones
                0x08000b30       0x24 C:/ProgramData/MATLAB/SupportPackages/R2025b/3P.instrset/gnuarm-armcortex.instrset/win/bin/../lib/gcc/arm-none-eabi/13.2.1/thumb/v7e-m+fp/hard/crtbegin.o
 .text.__do_global_dtors_aux
                0x08000b54       0x28 C:/ProgramData/MATLAB/SupportPackages/R2025b/3P.instrset/gnuarm-armcortex.instrset/win/bin/../lib/gcc/arm-none-eabi/13.2.1/thumb/v7e-m+fp/hard/crtbegin.o
 .text.frame_dummy
                0x08000b7c       0x24 C:/ProgramData/MATLAB/SupportPackages/R2025b/3P.instrset/gnuarm-armcortex.instrset/win/bin/../lib/gcc/arm-none-eabi/13.2.1/thumb/v7e-m+fp/hard/crtbegin.o
 .text.LL_DMA_EnableStream
                0x08000ba0       0x40 mw_stm32_spi_ll.c.o
 .text.LL_DMA_SetDataLength
                0x08000be0       0x48 mw_stm32_spi_ll.c.o
 .text.LL_DMA_ConfigAddresses
                0x08000c28       0x78 mw_stm32_spi_ll.c.o
 .text.LL_DMA_EnableIT_TC
                0x08000ca0       0x40 mw_stm32_spi_ll.c.o
 .text.LL_SPI_Enable
                0x08000ce0       0x20 mw_stm32_spi_ll.c.o
 .text.LL_SPI_Disable
                0x08000d00       0x20 mw_stm32_spi_ll.c.o
 .text.LL_SPI_IsEnabled
                0x08000d20       0x26 mw_stm32_spi_ll.c.o
 .text.LL_SPI_GetMode
                0x08000d46       0x1c mw_stm32_spi_ll.c.o
 .text.LL_SPI_SetClockPhase
                0x08000d62       0x26 mw_stm32_spi_ll.c.o
 .text.LL_SPI_GetClockPhase
                0x08000d88       0x1c mw_stm32_spi_ll.c.o
 .text.LL_SPI_SetClockPolarity
                0x08000da4       0x26 mw_stm32_spi_ll.c.o
 .text.LL_SPI_GetClockPolarity
                0x08000dca       0x1c mw_stm32_spi_ll.c.o
 .text.LL_SPI_GetTransferDirection
                0x08000de6       0x1c mw_stm32_spi_ll.c.o
 .text.LL_SPI_SetDataWidth
                0x08000e02       0x26 mw_stm32_spi_ll.c.o
 .text.LL_SPI_GetDataWidth
                0x08000e28       0x1c mw_stm32_spi_ll.c.o
 .text.LL_SPI_IsActiveFlag_RXNE
                0x08000e44       0x26 mw_stm32_spi_ll.c.o
 .text.LL_SPI_IsActiveFlag_TXE
                0x08000e6a       0x26 mw_stm32_spi_ll.c.o
 .text.LL_SPI_IsActiveFlag_BSY
                0x08000e90       0x26 mw_stm32_spi_ll.c.o
 .text.LL_SPI_EnableIT_RXNE
                0x08000eb6       0x20 mw_stm32_spi_ll.c.o
 .text.LL_SPI_EnableDMAReq_RX
                0x08000ed6       0x20 mw_stm32_spi_ll.c.o
 .text.LL_SPI_EnableDMAReq_TX
                0x08000ef6       0x20 mw_stm32_spi_ll.c.o
 .text.LL_SPI_DMA_GetRegAddr
                0x08000f16       0x18 mw_stm32_spi_ll.c.o
 .text.LL_SPI_ReceiveData8
                0x08000f2e       0x1c mw_stm32_spi_ll.c.o
 .text.LL_SPI_ReceiveData16
                0x08000f4a       0x1a mw_stm32_spi_ll.c.o
 .text.LL_SPI_TransmitData8
                0x08000f64       0x24 mw_stm32_spi_ll.c.o
 .text.LL_SPI_TransmitData16
                0x08000f88       0x24 mw_stm32_spi_ll.c.o
 .text.SPI_STM32_Init
                0x08000fac      0x1c4 mw_stm32_spi_ll.c.o
                0x08000fac                SPI_STM32_Init
 .text.MW_STM32_SPI_SetFormat
                0x08001170      0x1f6 mw_stm32_spi_ll.c.o
                0x08001170                MW_STM32_SPI_SetFormat
 .text.MW_SPI_ControllerWriteRead_Databits
                0x08001366      0x226 mw_stm32_spi_ll.c.o
                0x08001366                MW_SPI_ControllerWriteRead_Databits
 .text.SPI_ConfigureReceiveDMA
                0x0800158c       0x82 mw_stm32_spi_ll.c.o
                0x0800158c                SPI_ConfigureReceiveDMA
 .text.SPI_ConfigureTransmitDMA
                0x0800160e       0x58 mw_stm32_spi_ll.c.o
                0x0800160e                SPI_ConfigureTransmitDMA
 .text.MW_SPI_Disable
                0x08001666       0x76 mw_stm32_spi_ll.c.o
                0x08001666                MW_SPI_Disable
 .text.MW_SPI_Close
                0x080016dc       0x1a mw_stm32_spi_ll.c.o
                0x080016dc                MW_SPI_Close
 .text.errorHandle_MasterWriteRead
                0x080016f6       0x36 mw_stm32_spi_ll.c.o
 .text.extmodeParseArgs
                0x0800172c       0x1e xcp_ext_mode.c.o
                0x0800172c                extmodeParseArgs
 *fill*         0x0800174a        0x2 
 .text.extmodeInit
                0x0800174c      0x128 xcp_ext_mode.c.o
                0x0800174c                extmodeInit
 .text.extmodeWaitForHostRequest
                0x08001874       0xcc xcp_ext_mode.c.o
                0x08001874                extmodeWaitForHostRequest
 .text.extmodeEvent
                0x08001940       0xfc xcp_ext_mode.c.o
                0x08001940                extmodeEvent
 .text.extmodeBackgroundRun
                0x08001a3c       0x20 xcp_ext_mode.c.o
                0x08001a3c                extmodeBackgroundRun
 .text.extmodeReset
                0x08001a5c       0x40 xcp_ext_mode.c.o
                0x08001a5c                extmodeReset
 .text.extmodeStopRequested
                0x08001a9c       0x18 xcp_ext_mode.c.o
                0x08001a9c                extmodeStopRequested
 .text.extmodeSimulationComplete
                0x08001ab4       0x18 xcp_ext_mode.c.o
                0x08001ab4                extmodeSimulationComplete
 .text.LL_GPIO_SetOutputPin
                0x08001acc       0x1c BMS_MCU_CODE.c.o
 .text.LL_GPIO_ResetOutputPin
                0x08001ae8       0x1e BMS_MCU_CODE.c.o
 *fill*         0x08001b06        0x2 
 .text.BMS_MCU_C_SPIDrvBlock_setupImpl
                0x08001b08       0xa8 BMS_MCU_CODE.c.o
 .text.BMS_MCU_CODE_step
                0x08001bb0      0x8e0 BMS_MCU_CODE.c.o
                0x08001bb0                BMS_MCU_CODE_step
 .text.BMS_MCU_CODE_initialize
                0x08002490      0x214 BMS_MCU_CODE.c.o
                0x08002490                BMS_MCU_CODE_initialize
 .text.BMS_MCU_CODE_terminate
                0x080026a4       0x5c BMS_MCU_CODE.c.o
                0x080026a4                BMS_MCU_CODE_terminate
 .text.rt_OneStep
                0x08002700       0x78 ert_main.c.o
                0x08002700                rt_OneStep
 .text.main     0x08002778      0x184 ert_main.c.o
                0x08002778                main
 .text.xcp_void_printf
                0x080028fc       0x12 xcp_ext_common.c.o
                0x080028fc                xcp_void_printf
 .text.xcpCopyTimeValue
                0x0800290e       0x26 xcp_ext_common.c.o
 *fill*         0x08002934        0x4 
 .text.xcpExtModeUpdateTime
                0x08002938      0x13c xcp_ext_common.c.o
                0x08002938                xcpExtModeUpdateTime
 .text.xcpExtModeInit
                0x08002a74       0xb0 xcp_ext_common.c.o
                0x08002a74                xcpExtModeInit
 .text.xcpExtModeRunBackground
                0x08002b24      0x13c xcp_ext_common.c.o
                0x08002b24                xcpExtModeRunBackground
 .text.xcpExtModeReset
                0x08002c60      0x128 xcp_ext_common.c.o
                0x08002c60                xcpExtModeReset
 .text.sampleSignalTrigger
                0x08002d88      0x1b4 xcp_ext_classic_trigger.c.o
 .text.updateTriggerStatus
                0x08002f3c      0x2b8 xcp_ext_classic_trigger.c.o
 .text.xcpExtModeClassicTriggerInit
                0x080031f4       0x68 xcp_ext_classic_trigger.c.o
                0x080031f4                xcpExtModeClassicTriggerInit
 .text.xcpExtModeClassicTriggerEnabled
                0x0800325c      0x100 xcp_ext_classic_trigger.c.o
                0x0800325c                xcpExtModeClassicTriggerEnabled
 .text.xcpExtModeClassicTriggerReset
                0x0800335c       0xf4 xcp_ext_classic_trigger.c.o
                0x0800335c                xcpExtModeClassicTriggerReset
 .text.xcpExtModeClassicTriggerForceEnableStatusUpdate
                0x08003450       0x78 xcp_ext_classic_trigger.c.o
                0x08003450                xcpExtModeClassicTriggerForceEnableStatusUpdate
 .text.msgBufferRealloc
                0x080034c8       0x72 xcp.c.o
 *fill*         0x0800353a        0x2 
 .text.discardInputPacketHandler
                0x0800353c       0x3c xcp.c.o
 .text.unknownInputPacketHandler
                0x08003578       0x34 xcp.c.o
 .text.xcpGetPacketGroupID
                0x080035ac       0x74 xcp.c.o
 .text.xcpGetPacketHandlers
                0x08003620      0x124 xcp.c.o
 .text.xcpStatusSet
                0x08003744       0x20 xcp.c.o
                0x08003744                xcpStatusSet
 .text.xcpSessionStatusGet
                0x08003764       0x18 xcp.c.o
                0x08003764                xcpSessionStatusGet
 .text.xcpSessionStatusSetMask
                0x0800377c       0x28 xcp.c.o
                0x0800377c                xcpSessionStatusSetMask
 .text.xcpSessionStatusClearMask
                0x080037a4       0x34 xcp.c.o
                0x080037a4                xcpSessionStatusClearMask
 .text.xcpResourceProtectionStatusGet
                0x080037d8       0x18 xcp.c.o
                0x080037d8                xcpResourceProtectionStatusGet
 .text.xcpSessionConfigurationIdGet
                0x080037f0       0x18 xcp.c.o
                0x080037f0                xcpSessionConfigurationIdGet
 .text.genericOutputPacketHandler
                0x08003808      0x11c xcp.c.o
                0x08003808                genericOutputPacketHandler
 .text.xcpFindPacket
                0x08003924       0x6e xcp.c.o
                0x08003924                xcpFindPacket
 *fill*         0x08003992        0x2 
 .text.xcpInit  0x08003994       0x64 xcp.c.o
                0x08003994                xcpInit
 .text.xcpRun   0x080039f8      0x194 xcp.c.o
                0x080039f8                xcpRun
 .text.xcpEvent
                0x08003b8c       0x50 xcp.c.o
                0x08003b8c                xcpEvent
 .text.xcpGetStatus
                0x08003bdc       0x18 xcp.c.o
                0x08003bdc                xcpGetStatus
 .text.xcpReset
                0x08003bf4       0x40 xcp.c.o
                0x08003bf4                xcpReset
 .text.xcpPackedModeEventsFlush
                0x08003c34       0x1e xcp.c.o
                0x08003c34                xcpPackedModeEventsFlush
 .text.xcpPackedModeEventReset
                0x08003c52       0x2a xcp.c.o
                0x08003c52                xcpPackedModeEventReset
 .text.isValidUploadSize
                0x08003c7c       0x30 xcp_standard.c.o
 .text.xcpMemcpyFromMTA
                0x08003cac       0x38 xcp_standard.c.o
 .text.connectInputPacketHandler
                0x08003ce4       0xa4 xcp_standard.c.o
 .text.connectOutputPacketHandler
                0x08003d88       0xd4 xcp_standard.c.o
 .text.disconnectInputPacketHandler
                0x08003e5c       0x54 xcp_standard.c.o
 .text.getStatusInputPacketHandler
                0x08003eb0       0x28 xcp_standard.c.o
 .text.getStatusOutputPacketHandler
                0x08003ed8       0x80 xcp_standard.c.o
 .text.synchInputPacketHandler
                0x08003f58       0x44 xcp_standard.c.o
 .text.setMTAInputPacketHandler
                0x08003f9c       0x78 xcp_standard.c.o
 .text.uploadInputPacketHandler
                0x08004014       0x98 xcp_standard.c.o
 .text.uploadOutputPacketHandler
                0x080040ac       0x9c xcp_standard.c.o
 .text.shortUploadInputPacketHandler
                0x08004148       0xa4 xcp_standard.c.o
 .text.shortUploadOutputPacketHandler
                0x080041ec       0x9c xcp_standard.c.o
 .text.getPacket
                0x08004288       0x24 xcp_standard.c.o
 .text.xcpStandardInit
                0x080042ac       0x18 xcp_standard.c.o
                0x080042ac                xcpStandardInit
 .text.xcpStandardGetPacketLookup
                0x080042c4       0x18 xcp_standard.c.o
                0x080042c4                xcpStandardGetPacketLookup
 .text.xcpStandardSetPacketLookup
                0x080042dc       0x20 xcp_standard.c.o
                0x080042dc                xcpStandardSetPacketLookup
 .text.xcpStandardReset
                0x080042fc       0x12 xcp_standard.c.o
                0x080042fc                xcpStandardReset
 *fill*         0x0800430e        0x2 
 .text.xcpStandardGetAddressFromMta
                0x08004310       0x18 xcp_standard.c.o
                0x08004310                xcpStandardGetAddressFromMta
 .text.xcpStandardSetMta
                0x08004328       0x3c xcp_standard.c.o
                0x08004328                xcpStandardSetMta
 .text.xcpStandardIncrementMta
                0x08004364       0x28 xcp_standard.c.o
                0x08004364                xcpStandardIncrementMta
 .text.xcpStandardExtendedInit
                0x0800438c        0xe xcp_standard.c.o
                0x0800438c                xcpStandardExtendedInit
 .text.xcpStandardExtendedReset
                0x0800439a        0xe xcp_standard.c.o
                0x0800439a                xcpStandardExtendedReset
 .text.xcpDaqWriteLock
                0x080043a8       0x4c xcp_daq.c.o
 .text.xcpDaqWriteUnlock
                0x080043f4       0x20 xcp_daq.c.o
 .text.xcpDaqReadLock
                0x08004414       0x38 xcp_daq.c.o
 .text.xcpDaqReadUnlock
                0x0800444c       0x38 xcp_daq.c.o
 .text.isActiveDaqList
                0x08004484       0x50 xcp_daq.c.o
 .text.noActiveDaqLists
                0x080044d4       0x50 xcp_daq.c.o
 .text.isValidDaqPtr
                0x08004524       0xb8 xcp_daq.c.o
 .text.isValidDaqEntry
                0x080045dc       0x36 xcp_daq.c.o
 .text.isSupportedDaqListMode
                0x08004612       0x26 xcp_daq.c.o
 .text.isValidStartStopMode
                0x08004638       0x32 xcp_daq.c.o
 .text.isValidStartStopSynchMode
                0x0800466a       0x32 xcp_daq.c.o
 .text.absoluteOdtNumberIdentification
                0x0800469c       0x10 xcp_daq.c.o
 .text.isDaqPackedModeEnabled
                0x080046ac       0x6c xcp_daq.c.o
 .text.odtPacketSize
                0x08004718       0x54 xcp_daq.c.o
 .text.createDaqReservedPool
                0x0800476c       0x88 xcp_daq.c.o
 .text.destroyDaqReservedPool
                0x080047f4       0x2c xcp_daq.c.o
 .text.setDaqPtrInputPacketHandler
                0x08004820       0xdc xcp_daq.c.o
 .text.writeDaqInputPacketHandler
                0x080048fc      0x198 xcp_daq.c.o
 .text.setDaqListModeInputPacketHandler
                0x08004a94      0x1c8 xcp_daq.c.o
 .text.startStopDaqListInputPacketHandler
                0x08004c5c      0x3f4 xcp_daq.c.o
 .text.startStopDaqListOutputPacketHandler
                0x08005050       0x5c xcp_daq.c.o
 .text.startStopSynchInputPacketHandler
                0x080050ac      0x328 xcp_daq.c.o
 .text.getDaqProcessorInfoInputPacketHandler
                0x080053d4       0x28 xcp_daq.c.o
 .text.getDaqProcessorInfoOutputPacketHandler
                0x080053fc       0xac xcp_daq.c.o
 .text.getDaqResolutionInfoInputPacketHandler
                0x080054a8       0x28 xcp_daq.c.o
 .text.getDaqResolutionInfoOutputPacketHandler
                0x080054d0       0xb8 xcp_daq.c.o
 .text.freeDaqInputPacketHandler
                0x08005588       0x5c xcp_daq.c.o
 .text.allocDaqInputPacketHandler
                0x080055e4      0x18c xcp_daq.c.o
 .text.allocOdtInputPacketHandler
                0x08005770      0x1c0 xcp_daq.c.o
 .text.allocOdtEntryInputPacketHandler
                0x08005930      0x270 xcp_daq.c.o
 .text.getDaqClockInputPacketHandler
                0x08005ba0       0x22 xcp_daq.c.o
 *fill*         0x08005bc2        0x2 
 .text.setDaqPackedModeInputPacketHandler
                0x08005bc4      0x21c xcp_daq.c.o
 .text.level1CommandInputPacketHandler
                0x08005de0       0x64 xcp_daq.c.o
 .text.getPacket
                0x08005e44       0x24 xcp_daq.c.o
 .text.xcpDaqInit
                0x08005e68       0x38 xcp_daq.c.o
                0x08005e68                xcpDaqInit
 .text.xcpDaqGetPacketLookup
                0x08005ea0       0x18 xcp_daq.c.o
                0x08005ea0                xcpDaqGetPacketLookup
 .text.xcpDaqSetPacketLookup
                0x08005eb8       0x20 xcp_daq.c.o
                0x08005eb8                xcpDaqSetPacketLookup
 .text.xcpResetDaq
                0x08005ed8       0xa4 xcp_daq.c.o
 .text.daqWriteXCPDataForOdt
                0x08005f7c       0x7c xcp_daq.c.o
 .text.odtWriteEntries
                0x08005ff8       0x9c xcp_daq.c.o
 .text.xcpProcessDaq
                0x08006094      0x208 xcp_daq.c.o
 .text.xcpDaqEvent
                0x0800629c      0x108 xcp_daq.c.o
                0x0800629c                xcpDaqEvent
 .text.xcpDaqEventsFlush
                0x080063a4      0x284 xcp_daq.c.o
                0x080063a4                xcpDaqEventsFlush
 .text.xcpDaqLock
                0x08006628       0x1e xcp_daq.c.o
                0x08006628                xcpDaqLock
 .text.xcpDaqUnlock
                0x08006646        0xe xcp_daq.c.o
                0x08006646                xcpDaqUnlock
 .text.xcpResetDaqListStatus
                0x08006654      0x19c xcp_daq.c.o
                0x08006654                xcpResetDaqListStatus
 .text.xcpDaqReset
                0x080067f0       0x20 xcp_daq.c.o
                0x080067f0                xcpDaqReset
 .text.xcpDaqExtendedInit
                0x08006810        0xe xcp_daq.c.o
                0x08006810                xcpDaqExtendedInit
 .text.xcpDaqExtendedReset
                0x0800681e        0xe xcp_daq.c.o
                0x0800681e                xcpDaqExtendedReset
 .text.isValidShortDownloadSize
                0x0800682c       0x34 xcp_calibration.c.o
 .text.isValidDownloadSize
                0x08006860       0x3a xcp_calibration.c.o
 *fill*         0x0800689a        0x2 
 .text.xcpMemcpyToMTA
                0x0800689c       0x34 xcp_calibration.c.o
 .text.downloadInputPacketHandler
                0x080068d0       0xb0 xcp_calibration.c.o
 .text.shortDownloadInputPacketHandler
                0x08006980       0xb8 xcp_calibration.c.o
 .text.getPacket
                0x08006a38       0x24 xcp_calibration.c.o
 .text.xcpCalibrationInit
                0x08006a5c       0x14 xcp_calibration.c.o
                0x08006a5c                xcpCalibrationInit
 .text.xcpCalibrationGetPacketLookup
                0x08006a70       0x18 xcp_calibration.c.o
                0x08006a70                xcpCalibrationGetPacketLookup
 .text.xcpCalibrationSetPacketLookup
                0x08006a88       0x20 xcp_calibration.c.o
                0x08006a88                xcpCalibrationSetPacketLookup
 .text.xcpCalibrationReset
                0x08006aa8        0xe xcp_calibration.c.o
                0x08006aa8                xcpCalibrationReset
 .text.xcpFifoInit
                0x08006ab6       0x20 xcp_fifo.c.o
                0x08006ab6                xcpFifoInit
 .text.xcpFifoEnqueue
                0x08006ad6       0x2a xcp_fifo.c.o
                0x08006ad6                xcpFifoEnqueue
 .text.xcpFifoDequeue
                0x08006b00       0x3e xcp_fifo.c.o
                0x08006b00                xcpFifoDequeue
 .text.xcpFifoEnqueueHead
                0x08006b3e       0x32 xcp_fifo.c.o
                0x08006b3e                xcpFifoEnqueueHead
 .text.xcpFifoReset
                0x08006b70       0x16 xcp_fifo.c.o
                0x08006b70                xcpFifoReset
 *fill*         0x08006b86        0x2 
 .text.xcpTransportEmptyTxFifo
                0x08006b88       0x6c xcp_transport.c.o
 .text.xcpTransportEmptyRxFifo
                0x08006bf4       0x6c xcp_transport.c.o
 .text.xcpTransportInit
                0x08006c60      0x138 xcp_transport.c.o
                0x08006c60                xcpTransportInit
 .text.xcpTransportTxReady
                0x08006d98       0x1a xcp_transport.c.o
                0x08006d98                xcpTransportTxReady
 .text.xcpTransportTxTrigger
                0x08006db2       0x1a xcp_transport.c.o
                0x08006db2                xcpTransportTxTrigger
 .text.xcpTransportTxPacketSet
                0x08006dcc      0x144 xcp_transport.c.o
                0x08006dcc                xcpTransportTxPacketSet
 .text.xcpTransportTx
                0x08006f10       0xec xcp_transport.c.o
                0x08006f10                xcpTransportTx
 .text.xcpTransportRx
                0x08006ffc       0x80 xcp_transport.c.o
                0x08006ffc                xcpTransportRx
 .text.xcpTransportRxPacketGet
                0x0800707c      0x12c xcp_transport.c.o
                0x0800707c                xcpTransportRxPacketGet
 .text.xcpTransportPacketOffset
                0x080071a8       0x20 xcp_transport.c.o
                0x080071a8                xcpTransportPacketOffset
 .text.xcpTransportMsgBufferSize
                0x080071c8       0x70 xcp_transport.c.o
                0x080071c8                xcpTransportMsgBufferSize
 .text.xcpTransportMaxDtoSize
                0x08007238        0xe xcp_transport.c.o
                0x08007238                xcpTransportMaxDtoSize
 .text.xcpTransportMaxCtoSize
                0x08007246        0xe xcp_transport.c.o
                0x08007246                xcpTransportMaxCtoSize
 .text.xcpTransportRestart
                0x08007254       0x44 xcp_transport.c.o
                0x08007254                xcpTransportRestart
 .text.xcpTransportResynch
                0x08007298       0x40 xcp_transport.c.o
                0x08007298                xcpTransportResynch
 .text.xcpTransportCtoReservedMemPoolId
                0x080072d8       0x18 xcp_transport.c.o
                0x080072d8                xcpTransportCtoReservedMemPoolId
 .text.xcpTransportReset
                0x080072f0       0xe4 xcp_transport.c.o
                0x080072f0                xcpTransportReset
 .text.xcpInitializePoolMemoryArea
                0x080073d4       0x72 xcp_mem_default.c.o
 *fill*         0x08007446        0x2 
 .text.xcpMemInit
                0x08007448      0x1d4 xcp_mem_default.c.o
                0x08007448                xcpMemInit
 .text.xcpMemAlloc
                0x0800761c       0xe8 xcp_mem_default.c.o
                0x0800761c                xcpMemAlloc
 .text.xcpMemFree
                0x08007704      0x170 xcp_mem_default.c.o
                0x08007704                xcpMemFree
 .text.xcpMemReservedPoolCreate
                0x08007874      0x224 xcp_mem_default.c.o
                0x08007874                xcpMemReservedPoolCreate
 .text.xcpMemReservedPoolDestroy
                0x08007a98      0x158 xcp_mem_default.c.o
                0x08007a98                xcpMemReservedPoolDestroy
 .text.xcpMemCustomPoolCreate
                0x08007bf0       0xbc xcp_mem_default.c.o
                0x08007bf0                xcpMemCustomPoolCreate
 .text.xcpMemCustomPoolDestroy
                0x08007cac       0x64 xcp_mem_default.c.o
                0x08007cac                xcpMemCustomPoolDestroy
 .text.xcpMemAllocFromPool
                0x08007d10      0x170 xcp_mem_default.c.o
                0x08007d10                xcpMemAllocFromPool
 .text.xcpMemReset
                0x08007e80       0x50 xcp_mem_default.c.o
                0x08007e80                xcpMemReset
 .text.xcpDrvOpen
                0x08007ed0       0x64 xcp_drv_rtiostream.c.o
                0x08007ed0                xcpDrvOpen
 .text.xcpDrvIoctl
                0x08007f34       0x4c xcp_drv_rtiostream.c.o
                0x08007f34                xcpDrvIoctl
 .text.xcpDrvSend
                0x08007f80      0x14c xcp_drv_rtiostream.c.o
                0x08007f80                xcpDrvSend
 .text.xcpDrvRecv
                0x080080cc      0x14c xcp_drv_rtiostream.c.o
                0x080080cc                xcpDrvRecv
 .text.xcpDrvClose
                0x08008218       0x5c xcp_drv_rtiostream.c.o
                0x08008218                xcpDrvClose
 .text.xcpSortArray
                0x08008274       0xcc xcp_utils.c.o
                0x08008274                xcpSortArray
 .text.xcpSxiHtons
                0x08008340       0x18 xcp_frame_serial.c.o
 .text.xcpSxiNtohs
                0x08008358       0x1c xcp_frame_serial.c.o
 .text.xcpSxiChecksum
                0x08008374       0x3e xcp_frame_serial.c.o
                0x08008374                xcpSxiChecksum
 *fill*         0x080083b2        0x2 
 .text.xcpFrameInit
                0x080083b4       0x70 xcp_frame_serial.c.o
                0x080083b4                xcpFrameInit
 .text.xcpFrameMsgSend
                0x08008424      0x188 xcp_frame_serial.c.o
                0x08008424                xcpFrameMsgSend
 .text.xcpFrameMsgRecv
                0x080085ac      0x180 xcp_frame_serial.c.o
                0x080085ac                xcpFrameMsgRecv
 .text.xcpFrameCreateMsg
                0x0800872c       0x94 xcp_frame_serial.c.o
                0x0800872c                xcpFrameCreateMsg
 .text.xcpFrameExtractPacket
                0x080087c0      0x158 xcp_frame_serial.c.o
                0x080087c0                xcpFrameExtractPacket
 .text.xcpFrameHeaderSize
                0x08008918       0x10 xcp_frame_serial.c.o
                0x08008918                xcpFrameHeaderSize
 .text.xcpFrameTailSize
                0x08008928       0x10 xcp_frame_serial.c.o
                0x08008928                xcpFrameTailSize
 .text.xcpFrameMaxDtoSize
                0x08008938       0x12 xcp_frame_serial.c.o
                0x08008938                xcpFrameMaxDtoSize
 .text.xcpFrameMaxCtoSize
                0x0800894a       0x10 xcp_frame_serial.c.o
                0x0800894a                xcpFrameMaxCtoSize
 *fill*         0x0800895a        0x2 
 .text.xcpFrameRestart
                0x0800895c       0x30 xcp_frame_serial.c.o
                0x0800895c                xcpFrameRestart
 .text.xcpFrameSetCtoReservedMemPoolId
                0x0800898c       0x20 xcp_frame_serial.c.o
                0x0800898c                xcpFrameSetCtoReservedMemPoolId
 .text.xcpFrameReset
                0x080089ac       0x70 xcp_frame_serial.c.o
                0x080089ac                xcpFrameReset
 .text.xcpTransportGetInitParameters
                0x08008a1c       0x2e xcp_ext_param_default_serial.c.o
                0x08008a1c                xcpTransportGetInitParameters
 .text.xcpGetInitParameters
                0x08008a4a       0x2e xcp_ext_param_default_serial.c.o
                0x08008a4a                xcpGetInitParameters
 .text.HAL_Delay
                0x08008a78       0x2e overrideHALDelay.c.o
                0x08008a78                HAL_Delay
 *fill*         0x08008aa6        0x2 
 .text.PeriphCommonClock_Config
                0x08008aa8       0x10 platform_timer.c.o
                0x08008aa8                PeriphCommonClock_Config
 .text.getCurrentTimestampInMicros
                0x08008ab8       0x40 platform_timer.c.o
                0x08008ab8                getCurrentTimestampInMicros
 .text.returnTimeElapsed
                0x08008af8       0x2c platform_timer.c.o
                0x08008af8                returnTimeElapsed
 .text.timestampInit
                0x08008b24       0x28 platform_timer.c.o
 .text.getCurrentTimestamp
                0x08008b4c       0x44 platform_timer.c.o
                0x08008b4c                getCurrentTimestamp
 .text.__NVIC_SetPriority
                0x08008b90       0x54 SysTickScheduler.c.o
 .text.SysTick_Config
                0x08008be4       0x44 SysTickScheduler.c.o
 .text.SysTick_Isr
                0x08008c28       0x48 SysTickScheduler.c.o
 .text.SysTick_Handler
                0x08008c70       0x20 SysTickScheduler.c.o
                0x08008c70                SysTick_Handler
 .text.ARMCM_SysTick_Config
                0x08008c90       0xb0 SysTickScheduler.c.o
                0x08008c90                ARMCM_SysTick_Config
 .text.PendSV_Handler
                0x08008d40       0x44 m3m4m4f_multitasking.c.o
                0x08008d40                PendSV_Handler
 .text.SVC_Handler
                0x08008d84       0x58 m3m4m4f_multitasking.c.o
                0x08008d84                SVC_Handler
 .text.rtIOStreamOpen
                0x08008ddc       0x44 rtiostream_serial.c.o
                0x08008ddc                rtIOStreamOpen
 .text.rtIOStreamSend
                0x08008e20       0x38 rtiostream_serial.c.o
                0x08008e20                rtIOStreamSend
 .text.rtIOStreamRecv
                0x08008e58       0x48 rtiostream_serial.c.o
                0x08008e58                rtIOStreamRecv
 .text.rtIOStreamClose
                0x08008ea0       0x20 rtiostream_serial.c.o
                0x08008ea0                rtIOStreamClose
 .text.__NVIC_GetPriorityGrouping
                0x08008ec0       0x1c stm_usart.c.o
 .text.__NVIC_EnableIRQ
                0x08008edc       0x3c stm_usart.c.o
 .text.__NVIC_SetPriority
                0x08008f18       0x54 stm_usart.c.o
 .text.NVIC_EncodePriority
                0x08008f6c       0x66 stm_usart.c.o
 *fill*         0x08008fd2        0x2 
 .text.LL_DMA_EnableStream
                0x08008fd4       0x40 stm_usart.c.o
 .text.LL_DMA_DisableStream
                0x08009014       0x40 stm_usart.c.o
 .text.LL_DMA_GetMode
                0x08009054       0x30 stm_usart.c.o
 .text.LL_DMA_SetDataLength
                0x08009084       0x48 stm_usart.c.o
 .text.LL_DMA_GetDataLength
                0x080090cc       0x2c stm_usart.c.o
 .text.LL_DMA_ConfigAddresses
                0x080090f8       0x78 stm_usart.c.o
 .text.LL_DMA_IsActiveFlag_TC5
                0x08009170       0x28 stm_usart.c.o
 .text.LL_DMA_ClearFlag_TC5
                0x08009198       0x1c stm_usart.c.o
 .text.LL_DMA_EnableIT_TC
                0x080091b4       0x40 stm_usart.c.o
 .text.LL_DMA_DisableIT_TC
                0x080091f4       0x40 stm_usart.c.o
 .text.LL_DMA_IsEnabledIT_TC
                0x08009234       0x38 stm_usart.c.o
 .text.LL_USART_Enable
                0x0800926c       0x20 stm_usart.c.o
 .text.LL_USART_Disable
                0x0800928c       0x20 stm_usart.c.o
 .text.LL_USART_IsActiveFlag_PE
                0x080092ac       0x26 stm_usart.c.o
 .text.LL_USART_IsActiveFlag_FE
                0x080092d2       0x26 stm_usart.c.o
 .text.LL_USART_IsActiveFlag_NE
                0x080092f8       0x26 stm_usart.c.o
 .text.LL_USART_IsActiveFlag_ORE
                0x0800931e       0x26 stm_usart.c.o
 .text.LL_USART_IsActiveFlag_TC
                0x08009344       0x26 stm_usart.c.o
 .text.LL_USART_IsActiveFlag_TXE
                0x0800936a       0x26 stm_usart.c.o
 .text.LL_USART_ClearFlag_PE
                0x08009390       0x24 stm_usart.c.o
 .text.LL_USART_ClearFlag_ORE
                0x080093b4       0x24 stm_usart.c.o
 .text.LL_USART_EnableIT_RXNE
                0x080093d8       0x46 stm_usart.c.o
 .text.LL_USART_EnableIT_PE
                0x0800941e       0x46 stm_usart.c.o
 .text.LL_USART_EnableIT_ERROR
                0x08009464       0x46 stm_usart.c.o
 .text.LL_USART_DisableIT_IDLE
                0x080094aa       0x46 stm_usart.c.o
 .text.LL_USART_DisableIT_RXNE
                0x080094f0       0x46 stm_usart.c.o
 .text.LL_USART_DisableIT_TXE
                0x08009536       0x46 stm_usart.c.o
 .text.LL_USART_DisableIT_PE
                0x0800957c       0x46 stm_usart.c.o
 .text.LL_USART_DisableIT_ERROR
                0x080095c2       0x46 stm_usart.c.o
 .text.LL_USART_EnableDMAReq_RX
                0x08009608       0x46 stm_usart.c.o
 .text.LL_USART_DisableDMAReq_RX
                0x0800964e       0x46 stm_usart.c.o
 .text.LL_USART_EnableDMAReq_TX
                0x08009694       0x46 stm_usart.c.o
 .text.LL_USART_DisableDMAReq_TX
                0x080096da       0x46 stm_usart.c.o
 .text.LL_USART_DMA_GetRegAddr
                0x08009720       0x18 stm_usart.c.o
 .text.LL_USART_ReceiveData8
                0x08009738       0x1a stm_usart.c.o
 .text.LL_USART_TransmitData8
                0x08009752       0x1e stm_usart.c.o
 .text.getAvailableDataInBuffer
                0x08009770       0xcc stm_usart.c.o
                0x08009770                getAvailableDataInBuffer
 .text.getBytesToBeReadFromBuffer
                0x0800983c       0x6e stm_usart.c.o
                0x0800983c                getBytesToBeReadFromBuffer
 .text.readDataFromBuffer
                0x080098aa       0xcc stm_usart.c.o
                0x080098aa                readDataFromBuffer
 .text.UART_RXDMAInterruptHandler
                0x08009976       0xd4 stm_usart.c.o
                0x08009976                UART_RXDMAInterruptHandler
 .text.UART_IsActiveFlagError
                0x08009a4a       0xe0 stm_usart.c.o
                0x08009a4a                UART_IsActiveFlagError
 *fill*         0x08009b2a        0x2 
 .text.USART2_IRQHandler
                0x08009b2c       0x14 stm_usart.c.o
                0x08009b2c                USART2_IRQHandler
 .text.DMA1_Stream5_IRQHandler
                0x08009b40       0x20 stm_usart.c.o
                0x08009b40                DMA1_Stream5_IRQHandler
 .text.UART_ConfigureReceiveDMA
                0x08009b60       0x88 stm_usart.c.o
                0x08009b60                UART_ConfigureReceiveDMA
 .text.UART_ConfigureTransmitDMA
                0x08009be8       0x54 stm_usart.c.o
                0x08009be8                UART_ConfigureTransmitDMA
 .text.getReadErrorStatus
                0x08009c3c       0xc8 stm_usart.c.o
                0x08009c3c                getReadErrorStatus
 .text.MW_UART_Initialize
                0x08009d04      0x198 stm_usart.c.o
                0x08009d04                MW_UART_Initialize
 .text.MW_UART_ReceiveUsingBuffer
                0x08009e9c       0x5c stm_usart.c.o
                0x08009e9c                MW_UART_ReceiveUsingBuffer
 .text.MW_UART_TransmitUsingPolling
                0x08009ef8      0x184 stm_usart.c.o
                0x08009ef8                MW_UART_TransmitUsingPolling
 .text.MW_UART_DeInit
                0x0800a07c       0xaa stm_usart.c.o
                0x0800a07c                MW_UART_DeInit
 .text.sys_arch_protect_arm
                0x0800a126       0x22 sys_arch_arm.c.o
                0x0800a126                sys_arch_protect_arm
 .text.sys_arch_unprotect_arm
                0x0800a148       0x20 sys_arch_arm.c.o
                0x0800a148                sys_arch_unprotect_arm
 .text.__NVIC_GetPriorityGrouping
                0x0800a168       0x1c main.c.o
 .text.__NVIC_EnableIRQ
                0x0800a184       0x3c main.c.o
 .text.__NVIC_SetPriority
                0x0800a1c0       0x54 main.c.o
 .text.NVIC_EncodePriority
                0x0800a214       0x66 main.c.o
 *fill*         0x0800a27a        0x2 
 .text.LL_DMA_SetDataTransferDirection
                0x0800a27c       0x48 main.c.o
 .text.LL_DMA_SetMode
                0x0800a2c4       0x48 main.c.o
 .text.LL_DMA_SetPeriphIncMode
                0x0800a30c       0x48 main.c.o
 .text.LL_DMA_SetMemoryIncMode
                0x0800a354       0x48 main.c.o
 .text.LL_DMA_SetPeriphSize
                0x0800a39c       0x48 main.c.o
 .text.LL_DMA_SetMemorySize
                0x0800a3e4       0x48 main.c.o
 .text.LL_DMA_SetStreamPriorityLevel
                0x0800a42c       0x48 main.c.o
 .text.LL_DMA_SetChannelSelection
                0x0800a474       0x48 main.c.o
 .text.LL_DMA_DisableFifoMode
                0x0800a4bc       0x40 main.c.o
 .text.LL_RCC_HSI_Enable
                0x0800a4fc       0x20 main.c.o
 .text.LL_RCC_HSI_IsReady
                0x0800a51c       0x24 main.c.o
 .text.LL_RCC_HSI_SetCalibTrimming
                0x0800a540       0x2c main.c.o
 .text.LL_RCC_SetSysClkSource
                0x0800a56c       0x28 main.c.o
 .text.LL_RCC_GetSysClkSource
                0x0800a594       0x1c main.c.o
 .text.LL_RCC_SetAHBPrescaler
                0x0800a5b0       0x28 main.c.o
 .text.LL_RCC_SetAPB1Prescaler
                0x0800a5d8       0x28 main.c.o
 .text.LL_RCC_SetAPB2Prescaler
                0x0800a600       0x28 main.c.o
 .text.LL_RCC_SetTIMPrescaler
                0x0800a628       0x2c main.c.o
 .text.LL_RCC_PLL_Enable
                0x0800a654       0x20 main.c.o
 .text.LL_RCC_PLL_IsReady
                0x0800a674       0x28 main.c.o
 .text.LL_RCC_PLL_ConfigDomain_SYS
                0x0800a69c       0x5c main.c.o
 .text.LL_AHB1_GRP1_EnableClock
                0x0800a6f8       0x30 main.c.o
 .text.LL_APB1_GRP1_EnableClock
                0x0800a728       0x30 main.c.o
 .text.LL_APB2_GRP1_EnableClock
                0x0800a758       0x30 main.c.o
 .text.LL_SYSCFG_SetEXTISource
                0x0800a788       0x6c main.c.o
 .text.LL_FLASH_SetLatency
                0x0800a7f4       0x28 main.c.o
 .text.LL_FLASH_GetLatency
                0x0800a81c       0x1c main.c.o
 .text.LL_PWR_DisableOverDriveMode
                0x0800a838       0x20 main.c.o
 .text.LL_PWR_SetRegulVoltageScaling
                0x0800a858       0x28 main.c.o
 .text.LL_PWR_IsActiveFlag_VOS
                0x0800a880       0x28 main.c.o
 .text.LL_SPI_SetStandard
                0x0800a8a8       0x26 main.c.o
 .text.LL_USART_Enable
                0x0800a8ce       0x20 main.c.o
 .text.LL_USART_ConfigAsyncMode
                0x0800a8ee       0x2c main.c.o
 .text.LL_GPIO_SetPinMode
                0x0800a91a       0x7a main.c.o
 .text.LL_GPIO_SetPinPull
                0x0800a994       0x7a main.c.o
 .text.LL_GPIO_ResetOutputPin
                0x0800aa0e       0x1e main.c.o
 .text.SystemClock_Config
                0x0800aa2c       0xb0 main.c.o
                0x0800aa2c                SystemClock_Config
 .text.MX_SPI1_Init
                0x0800aadc       0xa4 main.c.o
                0x0800aadc                MX_SPI1_Init
 .text.MX_USART2_UART_Init
                0x0800ab80      0x100 main.c.o
                0x0800ab80                MX_USART2_UART_Init
 .text.MX_DMA_Init
                0x0800ac80       0x30 main.c.o
                0x0800ac80                MX_DMA_Init
 .text.MX_GPIO_Init
                0x0800acb0       0xb0 main.c.o
                0x0800acb0                MX_GPIO_Init
 .text.HAL_TIM_PeriodElapsedCallback
                0x0800ad60       0x24 main.c.o
                0x0800ad60                HAL_TIM_PeriodElapsedCallback
 .text.Error_Handler
                0x0800ad84        0xc main.c.o
                0x0800ad84                Error_Handler
 .text.NMI_Handler
                0x0800ad90        0x8 stm32f4xx_it.c.o
                0x0800ad90                NMI_Handler
 .text.HardFault_Handler
                0x0800ad98        0x8 stm32f4xx_it.c.o
                0x0800ad98                HardFault_Handler
 .text.MemManage_Handler
                0x0800ada0        0x8 stm32f4xx_it.c.o
                0x0800ada0                MemManage_Handler
 .text.BusFault_Handler
                0x0800ada8        0x8 stm32f4xx_it.c.o
                0x0800ada8                BusFault_Handler
 .text.UsageFault_Handler
                0x0800adb0        0x8 stm32f4xx_it.c.o
                0x0800adb0                UsageFault_Handler
 .text.DebugMon_Handler
                0x0800adb8        0xe stm32f4xx_it.c.o
                0x0800adb8                DebugMon_Handler
 *fill*         0x0800adc6        0x2 
 .text.TIM5_IRQHandler
                0x0800adc8       0x14 stm32f4xx_it.c.o
                0x0800adc8                TIM5_IRQHandler
 .text.HAL_MspInit
                0x0800addc       0x50 stm32f4xx_hal_msp.c.o
                0x0800addc                HAL_MspInit
 .text.HAL_InitTick
                0x0800ae2c       0xf8 stm32f4xx_hal_timebase_tim.c.o
                0x0800ae2c                HAL_InitTick
 .text.HAL_TIM_Base_Init
                0x0800af24       0x9e stm32f4xx_hal_tim.c.o
                0x0800af24                HAL_TIM_Base_Init
 .text.HAL_TIM_Base_MspInit
                0x0800afc2       0x14 stm32f4xx_hal_tim.c.o
                0x0800afc2                HAL_TIM_Base_MspInit
 *fill*         0x0800afd6        0x2 
 .text.HAL_TIM_Base_Start_IT
                0x0800afd8       0xe0 stm32f4xx_hal_tim.c.o
                0x0800afd8                HAL_TIM_Base_Start_IT
 .text.HAL_TIM_IRQHandler
                0x0800b0b8      0x1e0 stm32f4xx_hal_tim.c.o
                0x0800b0b8                HAL_TIM_IRQHandler
 .text.HAL_TIM_OC_DelayElapsedCallback
                0x0800b298       0x14 stm32f4xx_hal_tim.c.o
                0x0800b298                HAL_TIM_OC_DelayElapsedCallback
 .text.HAL_TIM_IC_CaptureCallback
                0x0800b2ac       0x14 stm32f4xx_hal_tim.c.o
                0x0800b2ac                HAL_TIM_IC_CaptureCallback
 .text.HAL_TIM_PWM_PulseFinishedCallback
                0x0800b2c0       0x14 stm32f4xx_hal_tim.c.o
                0x0800b2c0                HAL_TIM_PWM_PulseFinishedCallback
 .text.HAL_TIM_TriggerCallback
                0x0800b2d4       0x14 stm32f4xx_hal_tim.c.o
                0x0800b2d4                HAL_TIM_TriggerCallback
 .text.TIM_Base_SetConfig
                0x0800b2e8      0x158 stm32f4xx_hal_tim.c.o
                0x0800b2e8                TIM_Base_SetConfig
 .text.HAL_TIMEx_CommutCallback
                0x0800b440       0x14 stm32f4xx_hal_tim_ex.c.o
                0x0800b440                HAL_TIMEx_CommutCallback
 .text.HAL_TIMEx_BreakCallback
                0x0800b454       0x14 stm32f4xx_hal_tim_ex.c.o
                0x0800b454                HAL_TIMEx_BreakCallback
 .text.LL_GPIO_SetPinMode
                0x0800b468       0x7a stm32f4xx_ll_gpio.c.o
 .text.LL_GPIO_SetPinOutputType
                0x0800b4e2       0x30 stm32f4xx_ll_gpio.c.o
 .text.LL_GPIO_SetPinSpeed
                0x0800b512       0x7a stm32f4xx_ll_gpio.c.o
 .text.LL_GPIO_SetPinPull
                0x0800b58c       0x7a stm32f4xx_ll_gpio.c.o
 .text.LL_GPIO_SetAFPin_0_7
                0x0800b606       0x7a stm32f4xx_ll_gpio.c.o
 .text.LL_GPIO_SetAFPin_8_15
                0x0800b680       0x7e stm32f4xx_ll_gpio.c.o
 .text.LL_GPIO_Init
                0x0800b6fe      0x102 stm32f4xx_ll_gpio.c.o
                0x0800b6fe                LL_GPIO_Init
 .text.LL_SPI_IsEnabled
                0x0800b800       0x26 stm32f4xx_ll_spi.c.o
 .text.LL_SPI_SetCRCPolynomial
                0x0800b826       0x20 stm32f4xx_ll_spi.c.o
 .text.LL_SPI_Init
                0x0800b846       0xa4 stm32f4xx_ll_spi.c.o
                0x0800b846                LL_SPI_Init
 *fill*         0x0800b8ea        0x2 
 .text.LL_RCC_GetSysClkSource
                0x0800b8ec       0x1c stm32f4xx_ll_rcc.c.o
 .text.LL_RCC_GetAHBPrescaler
                0x0800b908       0x1c stm32f4xx_ll_rcc.c.o
 .text.LL_RCC_GetAPB1Prescaler
                0x0800b924       0x1c stm32f4xx_ll_rcc.c.o
 .text.LL_RCC_GetAPB2Prescaler
                0x0800b940       0x1c stm32f4xx_ll_rcc.c.o
 .text.LL_RCC_PLL_GetMainSource
                0x0800b95c       0x1c stm32f4xx_ll_rcc.c.o
 .text.LL_RCC_PLL_GetN
                0x0800b978       0x1c stm32f4xx_ll_rcc.c.o
 .text.LL_RCC_PLL_GetP
                0x0800b994       0x1c stm32f4xx_ll_rcc.c.o
 .text.LL_RCC_PLL_GetR
                0x0800b9b0       0x1c stm32f4xx_ll_rcc.c.o
 .text.LL_RCC_PLL_GetDivider
                0x0800b9cc       0x1c stm32f4xx_ll_rcc.c.o
 .text.LL_RCC_GetSystemClocksFreq
                0x0800b9e8       0x4a stm32f4xx_ll_rcc.c.o
                0x0800b9e8                LL_RCC_GetSystemClocksFreq
 *fill*         0x0800ba32        0x2 
 .text.RCC_GetSystemClockFreq
                0x0800ba34       0x88 stm32f4xx_ll_rcc.c.o
                0x0800ba34                RCC_GetSystemClockFreq
 .text.RCC_GetHCLKClockFreq
                0x0800babc       0x2c stm32f4xx_ll_rcc.c.o
                0x0800babc                RCC_GetHCLKClockFreq
 .text.RCC_GetPCLK1ClockFreq
                0x0800bae8       0x28 stm32f4xx_ll_rcc.c.o
                0x0800bae8                RCC_GetPCLK1ClockFreq
 .text.RCC_GetPCLK2ClockFreq
                0x0800bb10       0x28 stm32f4xx_ll_rcc.c.o
                0x0800bb10                RCC_GetPCLK2ClockFreq
 .text.RCC_PLL_GetFreqDomain_SYS
                0x0800bb38       0xa4 stm32f4xx_ll_rcc.c.o
                0x0800bb38                RCC_PLL_GetFreqDomain_SYS
 .text.LL_SetSystemCoreClock
                0x0800bbdc       0x20 stm32f4xx_ll_utils.c.o
                0x0800bbdc                LL_SetSystemCoreClock
 .text.LL_EXTI_EnableIT_0_31
                0x0800bbfc       0x24 stm32f4xx_ll_exti.c.o
 .text.LL_EXTI_DisableIT_0_31
                0x0800bc20       0x28 stm32f4xx_ll_exti.c.o
 .text.LL_EXTI_EnableEvent_0_31
                0x0800bc48       0x24 stm32f4xx_ll_exti.c.o
 .text.LL_EXTI_DisableEvent_0_31
                0x0800bc6c       0x28 stm32f4xx_ll_exti.c.o
 .text.LL_EXTI_EnableRisingTrig_0_31
                0x0800bc94       0x24 stm32f4xx_ll_exti.c.o
 .text.LL_EXTI_DisableRisingTrig_0_31
                0x0800bcb8       0x28 stm32f4xx_ll_exti.c.o
 .text.LL_EXTI_EnableFallingTrig_0_31
                0x0800bce0       0x24 stm32f4xx_ll_exti.c.o
 .text.LL_EXTI_DisableFallingTrig_0_31
                0x0800bd04       0x28 stm32f4xx_ll_exti.c.o
 .text.LL_EXTI_Init
                0x0800bd2c       0xfe stm32f4xx_ll_exti.c.o
                0x0800bd2c                LL_EXTI_Init
 *fill*         0x0800be2a        0x2 
 .text.HAL_RCC_GetHCLKFreq
                0x0800be2c       0x18 stm32f4xx_hal_rcc.c.o
                0x0800be2c                HAL_RCC_GetHCLKFreq
 .text.HAL_RCC_GetPCLK1Freq
                0x0800be44       0x28 stm32f4xx_hal_rcc.c.o
                0x0800be44                HAL_RCC_GetPCLK1Freq
 .text.HAL_RCC_GetClockConfig
                0x0800be6c       0x64 stm32f4xx_hal_rcc.c.o
                0x0800be6c                HAL_RCC_GetClockConfig
 .text.__NVIC_SetPriorityGrouping
                0x0800bed0       0x48 stm32f4xx_hal_cortex.c.o
 .text.__NVIC_GetPriorityGrouping
                0x0800bf18       0x1c stm32f4xx_hal_cortex.c.o
 .text.__NVIC_EnableIRQ
                0x0800bf34       0x3c stm32f4xx_hal_cortex.c.o
 .text.__NVIC_SetPriority
                0x0800bf70       0x54 stm32f4xx_hal_cortex.c.o
 .text.NVIC_EncodePriority
                0x0800bfc4       0x66 stm32f4xx_hal_cortex.c.o
 .text.HAL_NVIC_SetPriorityGrouping
                0x0800c02a       0x16 stm32f4xx_hal_cortex.c.o
                0x0800c02a                HAL_NVIC_SetPriorityGrouping
 .text.HAL_NVIC_SetPriority
                0x0800c040       0x38 stm32f4xx_hal_cortex.c.o
                0x0800c040                HAL_NVIC_SetPriority
 .text.HAL_NVIC_EnableIRQ
                0x0800c078       0x1c stm32f4xx_hal_cortex.c.o
                0x0800c078                HAL_NVIC_EnableIRQ
 .text.HAL_Init
                0x0800c094       0x44 stm32f4xx_hal.c.o
                0x0800c094                HAL_Init
 .text.HAL_IncTick
                0x0800c0d8       0x28 stm32f4xx_hal.c.o
                0x0800c0d8                HAL_IncTick
 .text.HAL_GetTick
                0x0800c100       0x18 stm32f4xx_hal.c.o
                0x0800c100                HAL_GetTick
 .text.LL_USART_IsEnabled
                0x0800c118       0x28 stm32f4xx_ll_usart.c.o
 .text.LL_USART_SetStopBitsLength
                0x0800c140       0x26 stm32f4xx_ll_usart.c.o
 .text.LL_USART_SetHWFlowCtrl
                0x0800c166       0x26 stm32f4xx_ll_usart.c.o
 .text.LL_USART_SetBaudRate
                0x0800c18c      0x45c stm32f4xx_ll_usart.c.o
 .text.LL_USART_Init
                0x0800c5e8      0x100 stm32f4xx_ll_usart.c.o
                0x0800c5e8                LL_USART_Init
 .text.SystemInit
                0x0800c6e8       0x24 system_stm32f4xx.c.o
                0x0800c6e8                SystemInit
 .text.Reset_Handler
                0x0800c70c       0x50 startup_stm32f446retx.s.o
                0x0800c70c                Reset_Handler
 .text.Default_Handler
                0x0800c75c        0x2 startup_stm32f446retx.s.o
                0x0800c75c                RTC_Alarm_IRQHandler
                0x0800c75c                EXTI2_IRQHandler
                0x0800c75c                TIM8_CC_IRQHandler
                0x0800c75c                FMPI2C1_EV_IRQHandler
                0x0800c75c                SPI4_IRQHandler
                0x0800c75c                TIM1_CC_IRQHandler
                0x0800c75c                DMA2_Stream5_IRQHandler
                0x0800c75c                PVD_IRQHandler
                0x0800c75c                SDIO_IRQHandler
                0x0800c75c                TAMP_STAMP_IRQHandler
                0x0800c75c                CAN2_RX1_IRQHandler
                0x0800c75c                EXTI3_IRQHandler
                0x0800c75c                TIM8_TRG_COM_TIM14_IRQHandler
                0x0800c75c                TIM1_UP_TIM10_IRQHandler
                0x0800c75c                TIM8_UP_TIM13_IRQHandler
                0x0800c75c                I2C3_ER_IRQHandler
                0x0800c75c                EXTI0_IRQHandler
                0x0800c75c                I2C2_EV_IRQHandler
                0x0800c75c                DMA1_Stream2_IRQHandler
                0x0800c75c                CAN1_RX0_IRQHandler
                0x0800c75c                FPU_IRQHandler
                0x0800c75c                OTG_HS_WKUP_IRQHandler
                0x0800c75c                CAN2_SCE_IRQHandler
                0x0800c75c                DMA2_Stream2_IRQHandler
                0x0800c75c                SPI1_IRQHandler
                0x0800c75c                TIM6_DAC_IRQHandler
                0x0800c75c                TIM1_BRK_TIM9_IRQHandler
                0x0800c75c                DCMI_IRQHandler
                0x0800c75c                CAN2_RX0_IRQHandler
                0x0800c75c                DMA2_Stream3_IRQHandler
                0x0800c75c                SAI2_IRQHandler
                0x0800c75c                USART6_IRQHandler
                0x0800c75c                USART3_IRQHandler
                0x0800c75c                CAN1_RX1_IRQHandler
                0x0800c75c                UART5_IRQHandler
                0x0800c75c                DMA2_Stream0_IRQHandler
                0x0800c75c                TIM4_IRQHandler
                0x0800c75c                QUADSPI_IRQHandler
                0x0800c75c                I2C1_EV_IRQHandler
                0x0800c75c                DMA1_Stream6_IRQHandler
                0x0800c75c                DMA1_Stream1_IRQHandler
                0x0800c75c                UART4_IRQHandler
                0x0800c75c                TIM3_IRQHandler
                0x0800c75c                RCC_IRQHandler
                0x0800c75c                TIM8_BRK_TIM12_IRQHandler
                0x0800c75c                Default_Handler
                0x0800c75c                CEC_IRQHandler
                0x0800c75c                EXTI15_10_IRQHandler
                0x0800c75c                ADC_IRQHandler
                0x0800c75c                DMA1_Stream7_IRQHandler
                0x0800c75c                TIM7_IRQHandler
                0x0800c75c                CAN2_TX_IRQHandler
                0x0800c75c                DMA2_Stream7_IRQHandler
                0x0800c75c                I2C3_EV_IRQHandler
                0x0800c75c                EXTI9_5_IRQHandler
                0x0800c75c                RTC_WKUP_IRQHandler
                0x0800c75c                SPDIF_RX_IRQHandler
                0x0800c75c                SPI2_IRQHandler
                0x0800c75c                OTG_HS_EP1_IN_IRQHandler
                0x0800c75c                DMA1_Stream0_IRQHandler
                0x0800c75c                CAN1_TX_IRQHandler
                0x0800c75c                FMPI2C1_ER_IRQHandler
                0x0800c75c                EXTI4_IRQHandler
                0x0800c75c                OTG_HS_EP1_OUT_IRQHandler
                0x0800c75c                WWDG_IRQHandler
                0x0800c75c                TIM2_IRQHandler
                0x0800c75c                OTG_FS_WKUP_IRQHandler
                0x0800c75c                TIM1_TRG_COM_TIM11_IRQHandler
                0x0800c75c                OTG_HS_IRQHandler
                0x0800c75c                EXTI1_IRQHandler
                0x0800c75c                I2C2_ER_IRQHandler
                0x0800c75c                DMA2_Stream1_IRQHandler
                0x0800c75c                CAN1_SCE_IRQHandler
                0x0800c75c                FLASH_IRQHandler
                0x0800c75c                DMA2_Stream4_IRQHandler
                0x0800c75c                USART1_IRQHandler
                0x0800c75c                OTG_FS_IRQHandler
                0x0800c75c                SPI3_IRQHandler
                0x0800c75c                DMA1_Stream4_IRQHandler
                0x0800c75c                I2C1_ER_IRQHandler
                0x0800c75c                FMC_IRQHandler
                0x0800c75c                DMA2_Stream6_IRQHandler
                0x0800c75c                SAI1_IRQHandler
                0x0800c75c                DMA1_Stream3_IRQHandler
 *fill*         0x0800c75e        0x2 
 .text.fmod     0x0800c760       0x6c C:/ProgramData/MATLAB/SupportPackages/R2025b/3P.instrset/gnuarm-armcortex.instrset/win/bin/../lib/gcc/arm-none-eabi/13.2.1/thumb/v7e-m+fp/hard\libm.a(libm_a-w_fmod.o)
                0x0800c760                fmod
 .text.__ieee754_fmod
                0x0800c7cc      0x30c C:/ProgramData/MATLAB/SupportPackages/R2025b/3P.instrset/gnuarm-armcortex.instrset/win/bin/../lib/gcc/arm-none-eabi/13.2.1/thumb/v7e-m+fp/hard\libm.a(libm_a-e_fmod.o)
                0x0800c7cc                __ieee754_fmod
 .text.__udivmoddi4
                0x0800cad8      0x2bc C:/ProgramData/MATLAB/SupportPackages/R2025b/3P.instrset/gnuarm-armcortex.instrset/win/bin/../lib/gcc/arm-none-eabi/13.2.1/thumb/v7e-m+fp/hard\libgcc.a(_udivmoddi4.o)
                0x0800cad8                __udivmoddi4
 .text.memset   0x0800cd94       0x10 C:/ProgramData/MATLAB/SupportPackages/R2025b/3P.instrset/gnuarm-armcortex.instrset/win/bin/../lib/gcc/arm-none-eabi/13.2.1/thumb/v7e-m+fp/hard\libg_nano.a(libc_a-memset.o)
                0x0800cd94                memset
 .text.__errno  0x0800cda4        0xc C:/ProgramData/MATLAB/SupportPackages/R2025b/3P.instrset/gnuarm-armcortex.instrset/win/bin/../lib/gcc/arm-none-eabi/13.2.1/thumb/v7e-m+fp/hard\libg_nano.a(libc_a-errno.o)
                0x0800cda4                __errno
 .text.__libc_init_array
                0x0800cdb0       0x48 C:/ProgramData/MATLAB/SupportPackages/R2025b/3P.instrset/gnuarm-armcortex.instrset/win/bin/../lib/gcc/arm-none-eabi/13.2.1/thumb/v7e-m+fp/hard\libg_nano.a(libc_a-init.o)
                0x0800cdb0                __libc_init_array
 .text.memcpy   0x0800cdf8       0x1c C:/ProgramData/MATLAB/SupportPackages/R2025b/3P.instrset/gnuarm-armcortex.instrset/win/bin/../lib/gcc/arm-none-eabi/13.2.1/thumb/v7e-m+fp/hard\libg_nano.a(libc_a-memcpy-stub.o)
                0x0800cdf8                memcpy
 *(.glue_7)
 .glue_7        0x0800ce14        0x0 linker stubs
 *(.glue_7t)
 .glue_7t       0x0800ce14        0x0 linker stubs
 *(.eh_frame)
 .eh_frame      0x0800ce14        0x0 C:/ProgramData/MATLAB/SupportPackages/R2025b/3P.instrset/gnuarm-armcortex.instrset/win/bin/../lib/gcc/arm-none-eabi/13.2.1/thumb/v7e-m+fp/hard/crtbegin.o
 *(.init)
 .init          0x0800ce14        0x4 C:/ProgramData/MATLAB/SupportPackages/R2025b/3P.instrset/gnuarm-armcortex.instrset/win/bin/../lib/gcc/arm-none-eabi/13.2.1/thumb/v7e-m+fp/hard/crti.o
                0x0800ce14                _init
 .init          0x0800ce18        0x8 C:/ProgramData/MATLAB/SupportPackages/R2025b/3P.instrset/gnuarm-armcortex.instrset/win/bin/../lib/gcc/arm-none-eabi/13.2.1/thumb/v7e-m+fp/hard/crtn.o
 *(.fini)
 .fini          0x0800ce20        0x4 C:/ProgramData/MATLAB/SupportPackages/R2025b/3P.instrset/gnuarm-armcortex.instrset/win/bin/../lib/gcc/arm-none-eabi/13.2.1/thumb/v7e-m+fp/hard/crti.o
                0x0800ce20                _fini
 .fini          0x0800ce24        0x8 C:/ProgramData/MATLAB/SupportPackages/R2025b/3P.instrset/gnuarm-armcortex.instrset/win/bin/../lib/gcc/arm-none-eabi/13.2.1/thumb/v7e-m+fp/hard/crtn.o
                0x0800ce2c                        . = ALIGN (0x4)
                0x0800ce2c                        _etext = .

.vfp11_veneer   0x0800ce2c        0x0
 .vfp11_veneer  0x0800ce2c        0x0 linker stubs

.v4_bx          0x0800ce2c        0x0
 .v4_bx         0x0800ce2c        0x0 linker stubs

.iplt           0x0800ce2c        0x0
 .iplt          0x0800ce2c        0x0 C:/ProgramData/MATLAB/SupportPackages/R2025b/3P.instrset/gnuarm-armcortex.instrset/win/bin/../lib/gcc/arm-none-eabi/13.2.1/thumb/v7e-m+fp/hard/crtbegin.o

.rodata         0x0800ce30     0x29d8
                0x0800ce30                        . = ALIGN (0x4)
 *(.rodata)
 .rodata        0x0800ce30      0x2b9 xcp_ext_mode.c.o
 *fill*         0x0800d0e9        0x3 
 .rodata        0x0800d0ec      0x12e xcp_ext_common.c.o
 *fill*         0x0800d21a        0x2 
 .rodata        0x0800d21c       0x4c xcp_ext_classic_trigger.c.o
 .rodata        0x0800d268      0x278 xcp.c.o
 .rodata        0x0800d4e0      0x3a9 xcp_standard.c.o
 *fill*         0x0800d889        0x3 
 .rodata        0x0800d88c     0x1010 xcp_daq.c.o
 .rodata        0x0800e89c       0xdd xcp_calibration.c.o
 *fill*         0x0800e979        0x3 
 .rodata        0x0800e97c      0x56e xcp_transport.c.o
 *fill*         0x0800eeea        0x2 
 .rodata        0x0800eeec       0xf5 xcp_mem_default.c.o
 *fill*         0x0800efe1        0x3 
 .rodata        0x0800efe4      0x228 xcp_drv_rtiostream.c.o
 .rodata        0x0800f20c      0x4aa xcp_frame_serial.c.o
 *(.rodata*)
 *fill*         0x0800f6b6        0x2 
 .rodata.STREAM_OFFSET_TAB
                0x0800f6b8        0x8 mw_stm32_spi_ll.c.o
 .rodata.BMS_MCU_CODE_M
                0x0800f6c0        0x4 BMS_MCU_CODE.c.o
                0x0800f6c0                BMS_MCU_CODE_M
 .rodata.rtAlwaysEnabled.0
                0x0800f6c4        0x1 BMS_MCU_CODE.c.o
 *fill*         0x0800f6c5        0x3 
 .rodata.standardSupportedRxPacket
                0x0800f6c8       0x54 xcp_standard.c.o
 .rodata.daqSupportedRxPacket
                0x0800f71c       0x9c xcp_daq.c.o
 .rodata.calibrationSupportedRxPacket
                0x0800f7b8       0x18 xcp_calibration.c.o
 .rodata.STREAM_OFFSET_TAB
                0x0800f7d0        0x8 stm_usart.c.o
 .rodata.STREAM_OFFSET_TAB
                0x0800f7d8        0x8 main.c.o
 .rodata.AHBPrescTable
                0x0800f7e0       0x10 system_stm32f4xx.c.o
                0x0800f7e0                AHBPrescTable
 .rodata.APBPrescTable
                0x0800f7f0        0x8 system_stm32f4xx.c.o
                0x0800f7f0                APBPrescTable
 .rodata.Zero   0x0800f7f8       0x10 C:/ProgramData/MATLAB/SupportPackages/R2025b/3P.instrset/gnuarm-armcortex.instrset/win/bin/../lib/gcc/arm-none-eabi/13.2.1/thumb/v7e-m+fp/hard\libm.a(libm_a-e_fmod.o)
                0x0800f808                        . = ALIGN (0x4)

.ARM.extab      0x0800f808        0x0
                0x0800f808                        . = ALIGN (0x4)
 *(.ARM.extab* .gnu.linkonce.armextab.*)
                0x0800f808                        . = ALIGN (0x4)

.ARM            0x0800f808        0x8
                0x0800f808                        . = ALIGN (0x4)
                0x0800f808                        __exidx_start = .
 *(.ARM.exidx*)
 .ARM.exidx.text.__udivmoddi4
                0x0800f808        0x8 C:/ProgramData/MATLAB/SupportPackages/R2025b/3P.instrset/gnuarm-armcortex.instrset/win/bin/../lib/gcc/arm-none-eabi/13.2.1/thumb/v7e-m+fp/hard\libgcc.a(_udivmoddi4.o)
                0x0800f810                        __exidx_end = .
                0x0800f810                        . = ALIGN (0x4)

.preinit_array  0x0800f810        0x0
                0x0800f810                        . = ALIGN (0x4)
                0x0800f810                        PROVIDE (__preinit_array_start = .)
 *(.preinit_array*)
                0x0800f810                        PROVIDE (__preinit_array_end = .)
                0x0800f810                        . = ALIGN (0x4)

.init_array     0x0800f810        0x4
                0x0800f810                        . = ALIGN (0x4)
                0x0800f810                        PROVIDE (__init_array_start = .)
 *(SORT_BY_NAME(.init_array.*))
 *(.init_array*)
 .init_array    0x0800f810        0x4 C:/ProgramData/MATLAB/SupportPackages/R2025b/3P.instrset/gnuarm-armcortex.instrset/win/bin/../lib/gcc/arm-none-eabi/13.2.1/thumb/v7e-m+fp/hard/crtbegin.o
                0x0800f814                        PROVIDE (__init_array_end = .)
                0x0800f814                        . = ALIGN (0x4)

.fini_array     0x0800f814        0x4
                0x0800f814                        . = ALIGN (0x4)
                [!provide]                        PROVIDE (__fini_array_start = .)
 *(SORT_BY_NAME(.fini_array.*))
 *(.fini_array*)
 .fini_array    0x0800f814        0x4 C:/ProgramData/MATLAB/SupportPackages/R2025b/3P.instrset/gnuarm-armcortex.instrset/win/bin/../lib/gcc/arm-none-eabi/13.2.1/thumb/v7e-m+fp/hard/crtbegin.o
                [!provide]                        PROVIDE (__fini_array_end = .)
                0x0800f818                        . = ALIGN (0x4)
                0x0800f818                        _sidata = LOADADDR (.data)

.rel.dyn        0x0800f818        0x0
 .rel.iplt      0x0800f818        0x0 C:/ProgramData/MATLAB/SupportPackages/R2025b/3P.instrset/gnuarm-armcortex.instrset/win/bin/../lib/gcc/arm-none-eabi/13.2.1/thumb/v7e-m+fp/hard/crtbegin.o

.data           0x20000000      0x1d4 load address 0x0800f818
                0x20000000                        . = ALIGN (0x4)
                0x20000000                        _sdata = .
 *(.data)
 *(.data*)
 .data.BMS_MCU_CODE_P
                0x20000000       0xf0 BMS_MCU_CODE_data.c.o
                0x20000000                BMS_MCU_CODE_P
 .data.xcpExtmodeFinalSimulationTime
                0x200000f0        0x8 xcp_ext_common.c.o
                0x200000f0                xcpExtmodeFinalSimulationTime
 .data.xcpClassicTriggerDuration
                0x200000f8        0x4 xcp_ext_classic_trigger.c.o
                0x200000f8                xcpClassicTriggerDuration
 .data.xcpClassicTriggerArmRequest
                0x200000fc        0x1 xcp_ext_classic_trigger.c.o
                0x200000fc                xcpClassicTriggerArmRequest
 *fill*         0x200000fd        0x3 
 .data.startStopDaqListId
                0x20000100        0x4 xcp_daq.c.o
 .data.xcpCurrentDaq
                0x20000104        0x4 xcp_daq.c.o
 .data.xcpEventCustomMemoryManager
                0x20000108        0xc xcp_daq.c.o
 .data.xcpCtoReservedMemPoolId
                0x20000114        0x4 xcp_transport.c.o
 .data.xcpMemMainBlockSizes
                0x20000118        0xc xcp_mem_default.c.o
 .data.xcpMemMainBlocksNumber
                0x20000124        0xc xcp_mem_default.c.o
 .data.drvID    0x20000130        0x4 xcp_drv_rtiostream.c.o
 .data.xcpCtoReservedMemPoolId
                0x20000134        0x4 xcp_frame_serial.c.o
 .data.uartObj  0x20000138       0x40 rtiostream_serial.c.o
                0x20000138                uartObj
 .data.uwTickPrio
                0x20000178        0x4 stm32f4xx_hal.c.o
                0x20000178                uwTickPrio
 .data.uwTickFreq
                0x2000017c        0x1 stm32f4xx_hal.c.o
                0x2000017c                uwTickFreq
 *fill*         0x2000017d        0x3 
 .data.SystemCoreClock
                0x20000180        0x4 system_stm32f4xx.c.o
                0x20000180                SystemCoreClock
 .data._impure_ptr
                0x20000184        0x4 C:/ProgramData/MATLAB/SupportPackages/R2025b/3P.instrset/gnuarm-armcortex.instrset/win/bin/../lib/gcc/arm-none-eabi/13.2.1/thumb/v7e-m+fp/hard\libg_nano.a(libc_a-impure.o)
                0x20000184                _impure_ptr
 .data._impure_data
                0x20000188       0x4c C:/ProgramData/MATLAB/SupportPackages/R2025b/3P.instrset/gnuarm-armcortex.instrset/win/bin/../lib/gcc/arm-none-eabi/13.2.1/thumb/v7e-m+fp/hard\libg_nano.a(libc_a-impure.o)
                0x20000188                _impure_data
 *(.RamFunc)
 *(.RamFunc*)
                0x200001d4                        . = ALIGN (0x4)
                0x200001d4                        _edata = .

.tm_clone_table
                0x200001d4        0x0 load address 0x0800f9ec
 .tm_clone_table
                0x200001d4        0x0 C:/ProgramData/MATLAB/SupportPackages/R2025b/3P.instrset/gnuarm-armcortex.instrset/win/bin/../lib/gcc/arm-none-eabi/13.2.1/thumb/v7e-m+fp/hard/crtbegin.o
 .tm_clone_table
                0x200001d4        0x0 C:/ProgramData/MATLAB/SupportPackages/R2025b/3P.instrset/gnuarm-armcortex.instrset/win/bin/../lib/gcc/arm-none-eabi/13.2.1/thumb/v7e-m+fp/hard/crtend.o

.igot.plt       0x200001d4        0x0 load address 0x0800f9ec
 .igot.plt      0x200001d4        0x0 C:/ProgramData/MATLAB/SupportPackages/R2025b/3P.instrset/gnuarm-armcortex.instrset/win/bin/../lib/gcc/arm-none-eabi/13.2.1/thumb/v7e-m+fp/hard/crtbegin.o
                0x200001d4                        . = ALIGN (0x4)

.bss            0x200001d8     0x114c load address 0x0800f9ec
                0x200001d8                        _sbss = .
                0x200001d8                        __bss_start__ = _sbss
 *(.bss)
 *(.bss*)
 .bss.completed.1
                0x200001d8        0x1 C:/ProgramData/MATLAB/SupportPackages/R2025b/3P.instrset/gnuarm-armcortex.instrset/win/bin/../lib/gcc/arm-none-eabi/13.2.1/thumb/v7e-m+fp/hard/crtbegin.o
 *fill*         0x200001d9        0x3 
 .bss.object.0  0x200001dc       0x18 C:/ProgramData/MATLAB/SupportPackages/R2025b/3P.instrset/gnuarm-armcortex.instrset/win/bin/../lib/gcc/arm-none-eabi/13.2.1/thumb/v7e-m+fp/hard/crtbegin.o
 .bss.mw_spi1   0x200001f4       0x58 mw_stm32_spi_ll.c.o
                0x200001f4                mw_spi1
 .bss.xcpCustomTriggerFunction
                0x2000024c        0x8 xcp_ext_mode.c.o
 .bss.BMS_MCU_CODE_B
                0x20000254        0x5 BMS_MCU_CODE.c.o
                0x20000254                BMS_MCU_CODE_B
 *fill*         0x20000259        0x3 
 .bss.BMS_MCU_CODE_DW
                0x2000025c       0x3c BMS_MCU_CODE.c.o
                0x2000025c                BMS_MCU_CODE_DW
 .bss.BMS_MCU_CODE_Y
                0x20000298        0x6 BMS_MCU_CODE.c.o
                0x20000298                BMS_MCU_CODE_Y
 *fill*         0x2000029e        0x2 
 .bss.BMS_MCU_CODE_M_
                0x200002a0       0x48 BMS_MCU_CODE.c.o
 .bss.rt_ExtModeInfo.2
                0x200002e8       0x14 BMS_MCU_CODE.c.o
 .bss.systemRan.1
                0x200002fc       0xb8 BMS_MCU_CODE.c.o
 .bss.IsrOverrun
                0x200003b4        0x4 ert_main.c.o
                0x200003b4                IsrOverrun
 .bss.OverrunFlag
                0x200003b8        0x1 ert_main.c.o
 .bss.stopRequested
                0x200003b9        0x1 ert_main.c.o
                0x200003b9                stopRequested
 .bss.runModel  0x200003ba        0x1 ert_main.c.o
                0x200003ba                runModel
 .bss.xcpModelStartRequest
                0x200003bb        0x1 xcp_ext_common.c.o
                0x200003bb                xcpModelStartRequest
 .bss.xcpModelStopRequest
                0x200003bc        0x1 xcp_ext_common.c.o
                0x200003bc                xcpModelStopRequest
 .bss.xcpModelStatus
                0x200003bd        0x1 xcp_ext_common.c.o
                0x200003bd                xcpModelStatus
 *fill*         0x200003be        0x2 
 .bss.xcpModelChecksum0
                0x200003c0        0x4 xcp_ext_common.c.o
                0x200003c0                xcpModelChecksum0
 .bss.xcpModelChecksum1
                0x200003c4        0x4 xcp_ext_common.c.o
                0x200003c4                xcpModelChecksum1
 .bss.xcpModelChecksum2
                0x200003c8        0x4 xcp_ext_common.c.o
                0x200003c8                xcpModelChecksum2
 .bss.xcpModelChecksum3
                0x200003cc        0x4 xcp_ext_common.c.o
                0x200003cc                xcpModelChecksum3
 .bss.xcpModelIntegerCode
                0x200003d0        0x4 xcp_ext_common.c.o
                0x200003d0                xcpModelIntegerCode
 .bss.xcpExtmodeSimulationComplete
                0x200003d4        0x1 xcp_ext_common.c.o
                0x200003d4                xcpExtmodeSimulationComplete
 *fill*         0x200003d5        0x3 
 .bss.xcpDummyDoubleVariable
                0x200003d8        0x8 xcp_ext_common.c.o
                0x200003d8                xcpDummyDoubleVariable
 .bss.xcpDummyUint64Variable
                0x200003e0        0x8 xcp_ext_common.c.o
                0x200003e0                xcpDummyUint64Variable
 .bss.xcpCurrentSimulationTimeInMs
                0x200003e8        0x8 xcp_ext_common.c.o
                0x200003e8                xcpCurrentSimulationTimeInMs
 .bss.xcpBaseRateSimulationTime
                0x200003f0        0x8 xcp_ext_common.c.o
 .bss.xcpClassicTriggerEventId
                0x200003f8        0x2 xcp_ext_classic_trigger.c.o
                0x200003f8                xcpClassicTriggerEventId
 *fill*         0x200003fa        0x2 
 .bss.xcpClassicTriggerSignalAddress
                0x200003fc        0x4 xcp_ext_classic_trigger.c.o
                0x200003fc                xcpClassicTriggerSignalAddress
 .bss.xcpClassicTriggerSignalAddressExtension
                0x20000400        0x1 xcp_ext_classic_trigger.c.o
                0x20000400                xcpClassicTriggerSignalAddressExtension
 *fill*         0x20000401        0x7 
 .bss.xcpClassicTriggerLevel
                0x20000408        0x8 xcp_ext_classic_trigger.c.o
                0x20000408                xcpClassicTriggerLevel
 .bss.xcpClassicTriggerHoldOff
                0x20000410        0x4 xcp_ext_classic_trigger.c.o
                0x20000410                xcpClassicTriggerHoldOff
 .bss.xcpClassicTriggerDelay
                0x20000414        0x4 xcp_ext_classic_trigger.c.o
                0x20000414                xcpClassicTriggerDelay
 .bss.xcpClassicTriggerDirection
                0x20000418        0x1 xcp_ext_classic_trigger.c.o
                0x20000418                xcpClassicTriggerDirection
 .bss.xcpClassicTriggerCancelRequest
                0x20000419        0x1 xcp_ext_classic_trigger.c.o
                0x20000419                xcpClassicTriggerCancelRequest
 .bss.xcpClassicTriggerSource
                0x2000041a        0x1 xcp_ext_classic_trigger.c.o
                0x2000041a                xcpClassicTriggerSource
 .bss.xcpClassicTriggerMode
                0x2000041b        0x1 xcp_ext_classic_trigger.c.o
                0x2000041b                xcpClassicTriggerMode
 .bss.xcpClassicTriggerStatus
                0x2000041c        0x1 xcp_ext_classic_trigger.c.o
                0x2000041c                xcpClassicTriggerStatus
 *fill*         0x2000041d        0x3 
 .bss.xcpOldSignalValue
                0x20000420        0x8 xcp_ext_classic_trigger.c.o
 .bss.xcpOldSignalValueAvailable
                0x20000428        0x1 xcp_ext_classic_trigger.c.o
 .bss.xcpOldClassicTriggerSource
                0x20000429        0x1 xcp_ext_classic_trigger.c.o
 .bss.xcpTriggerEnabled
                0x2000042a        0x1 xcp_ext_classic_trigger.c.o
 .bss.xcpSignalTriggerFired
                0x2000042b        0x1 xcp_ext_classic_trigger.c.o
 .bss.xcpTriggerCount
                0x2000042c        0x4 xcp_ext_classic_trigger.c.o
 .bss.xcpForcedTriggerEnabled
                0x20000430        0x1 xcp_ext_classic_trigger.c.o
 .bss.xcpForceTriggerEnableRequest
                0x20000431        0x1 xcp_ext_classic_trigger.c.o
 .bss.initialized
                0x20000432        0x1 xcp.c.o
 .bss.xcpStatus
                0x20000433        0x1 xcp.c.o
 .bss.xcpSessionStatus
                0x20000434        0x1 xcp.c.o
 .bss.xcpResourceProtectionStatus
                0x20000435        0x1 xcp.c.o
 .bss.xcpSessionConfigurationId
                0x20000436        0x2 xcp.c.o
 .bss.groupPacketLookup
                0x20000438       0x10 xcp.c.o
 .bss.xcpMta    0x20000448        0x8 xcp_standard.c.o
 .bss.xcpUploadSize
                0x20000450        0x1 xcp_standard.c.o
 *fill*         0x20000451        0x3 
 .bss.packetLookup
                0x20000454        0x4 xcp_standard.c.o
 .bss.xcpDynamicDaqLists
                0x20000458        0x8 xcp_daq.c.o
 .bss.xcpRunningEventCounter
                0x20000460        0x4 xcp_daq.c.o
 .bss.daqLock   0x20000464        0x4 xcp_daq.c.o
 .bss.packetLookup
                0x20000468        0x4 xcp_daq.c.o
 .bss.packetLookup
                0x2000046c        0x4 xcp_calibration.c.o
 .bss.txFifo    0x20000470       0x10 xcp_transport.c.o
 .bss.txLock    0x20000480        0x4 xcp_transport.c.o
 .bss.rxFifo    0x20000484        0x8 xcp_transport.c.o
 .bss.rxLock    0x2000048c        0x4 xcp_transport.c.o
 .bss.initialized
                0x20000490        0x1 xcp_transport.c.o
 *fill*         0x20000491        0x3 
 .bss.xcpMemPoolDescriptors
                0x20000494       0xc0 xcp_mem_default.c.o
 .bss.xcpMemCustomPoolDescriptors
                0x20000554        0x8 xcp_mem_default.c.o
 .bss.xcpMemMainChunk
                0x2000055c      0x3a7 xcp_mem_default.c.o
 *fill*         0x20000903        0x1 
 .bss.xcpMemReservedPoolsChunk
                0x20000904      0x427 xcp_mem_default.c.o
 *fill*         0x20000d2b        0x1 
 .bss.xcpMemReservedPoolsChunkUsedBytes
                0x20000d2c        0x4 xcp_mem_default.c.o
 .bss.xcpMemLock
                0x20000d30        0x4 xcp_mem_default.c.o
 .bss.forceBlocking
                0x20000d34        0x1 xcp_drv_rtiostream.c.o
 *fill*         0x20000d35        0x1 
 .bss.txCounter
                0x20000d36        0x2 xcp_frame_serial.c.o
 .bss.rxCounter
                0x20000d38        0x2 xcp_frame_serial.c.o
 *fill*         0x20000d3a        0x2 
 .bss.firstRxCounterReceived
                0x20000d3c        0x4 xcp_frame_serial.c.o
 .bss.initialized
                0x20000d40        0x1 xcp_frame_serial.c.o
 *fill*         0x20000d41        0x3 
 .bss.timestampInitialized
                0x20000d44        0x4 platform_timer.c.o
 .bss.timestampStartTime
                0x20000d48        0x4 platform_timer.c.o
 .bss.schdl_counter
                0x20000d4c        0x4 SysTickScheduler.c.o
                0x20000d4c                schdl_counter
 .bss.schdl_counter_max
                0x20000d50        0x4 SysTickScheduler.c.o
                0x20000d50                schdl_counter_max
 .bss.taskToSchedule
                0x20000d54        0x4 m3m4m4f_multitasking.c.o
                0x20000d54                taskToSchedule
 .bss.mw_ext_h  0x20000d58        0x4 rtiostream_serial.c.o
                0x20000d58                mw_ext_h
 .bss.UARTRxBuffer
                0x20000d5c        0x4 rtiostream_serial.c.o
                0x20000d5c                UARTRxBuffer
 .bss.mw_usart2
                0x20000d60       0x40 stm_usart.c.o
                0x20000d60                mw_usart2
 .bss.USART2ReceiveBuffer
                0x20000da0      0x400 stm_usart.c.o
                0x20000da0                USART2ReceiveBuffer
 .bss.htim5     0x200011a0       0x48 stm32f4xx_hal_timebase_tim.c.o
                0x200011a0                htim5
 .bss.uwTick    0x200011e8        0x4 stm32f4xx_hal.c.o
                0x200011e8                uwTick
 .bss.__sf      0x200011ec      0x138 C:/ProgramData/MATLAB/SupportPackages/R2025b/3P.instrset/gnuarm-armcortex.instrset/win/bin/../lib/gcc/arm-none-eabi/13.2.1/thumb/v7e-m+fp/hard\libg_nano.a(libc_a-findfp.o)
                0x200011ec                __sf
 *(COMMON)
                0x20001324                        . = ALIGN (0x4)
                0x20001324                        _ebss = .
                0x20001324                        __bss_end__ = _ebss

._user_heap_stack
                0x20001324      0x604 load address 0x0800f9ec
                0x20001328                        . = ALIGN (0x8)
 *fill*         0x20001324        0x4 
                [!provide]                        PROVIDE (end = .)
                0x20001328                        PROVIDE (_end = .)
                0x20001528                        . = (. + _Min_Heap_Size)
 *fill*         0x20001328      0x200 
                0x20001928                        . = (. + _Min_Stack_Size)
 *fill*         0x20001528      0x400 
                0x20001928                        . = ALIGN (0x8)

/DISCARD/
 libc.a(*)
 libm.a(*)
 libgcc.a(*)

.ARM.attributes
                0x00000000       0x30
 *(.ARM.attributes)
 .ARM.attributes
                0x00000000       0x22 C:/ProgramData/MATLAB/SupportPackages/R2025b/3P.instrset/gnuarm-armcortex.instrset/win/bin/../lib/gcc/arm-none-eabi/13.2.1/thumb/v7e-m+fp/hard/crti.o
 .ARM.attributes
                0x00000022       0x34 C:/ProgramData/MATLAB/SupportPackages/R2025b/3P.instrset/gnuarm-armcortex.instrset/win/bin/../lib/gcc/arm-none-eabi/13.2.1/thumb/v7e-m+fp/hard/crtbegin.o
 .ARM.attributes
                0x00000056       0x34 mw_stm32_spi_ll.c.o
 .ARM.attributes
                0x0000008a       0x34 xcp_ext_mode.c.o
 .ARM.attributes
                0x000000be       0x34 BMS_MCU_CODE.c.o
 .ARM.attributes
                0x000000f2       0x34 BMS_MCU_CODE_data.c.o
 .ARM.attributes
                0x00000126       0x34 ert_main.c.o
 .ARM.attributes
                0x0000015a       0x34 xcp_ext_common.c.o
 .ARM.attributes
                0x0000018e       0x34 xcp_ext_classic_trigger.c.o
 .ARM.attributes
                0x000001c2       0x34 xcp.c.o
 .ARM.attributes
                0x000001f6       0x34 xcp_standard.c.o
 .ARM.attributes
                0x0000022a       0x34 xcp_daq.c.o
 .ARM.attributes
                0x0000025e       0x34 xcp_calibration.c.o
 .ARM.attributes
                0x00000292       0x34 xcp_fifo.c.o
 .ARM.attributes
                0x000002c6       0x34 xcp_transport.c.o
 .ARM.attributes
                0x000002fa       0x34 xcp_mem_default.c.o
 .ARM.attributes
                0x0000032e       0x34 xcp_drv_rtiostream.c.o
 .ARM.attributes
                0x00000362       0x34 xcp_utils.c.o
 .ARM.attributes
                0x00000396       0x34 xcp_frame_serial.c.o
 .ARM.attributes
                0x000003ca       0x34 xcp_ext_param_default_serial.c.o
 .ARM.attributes
                0x000003fe       0x34 overrideHALDelay.c.o
 .ARM.attributes
                0x00000432       0x34 platform_timer.c.o
 .ARM.attributes
                0x00000466       0x34 SysTickScheduler.c.o
 .ARM.attributes
                0x0000049a       0x34 m3m4m4f_multitasking.c.o
 .ARM.attributes
                0x000004ce       0x34 rtiostream_serial.c.o
 .ARM.attributes
                0x00000502       0x34 stm_usart.c.o
 .ARM.attributes
                0x00000536       0x34 sys_arch_arm.c.o
 .ARM.attributes
                0x0000056a       0x34 main.c.o
 .ARM.attributes
                0x0000059e       0x34 stm32f4xx_it.c.o
 .ARM.attributes
                0x000005d2       0x34 stm32f4xx_hal_msp.c.o
 .ARM.attributes
                0x00000606       0x34 stm32f4xx_hal_timebase_tim.c.o
 .ARM.attributes
                0x0000063a       0x34 stm32f4xx_hal_tim.c.o
 .ARM.attributes
                0x0000066e       0x34 stm32f4xx_hal_tim_ex.c.o
 .ARM.attributes
                0x000006a2       0x34 stm32f4xx_ll_gpio.c.o
 .ARM.attributes
                0x000006d6       0x34 stm32f4xx_ll_spi.c.o
 .ARM.attributes
                0x0000070a       0x34 stm32f4xx_ll_rcc.c.o
 .ARM.attributes
                0x0000073e       0x34 stm32f4xx_ll_utils.c.o
 .ARM.attributes
                0x00000772       0x34 stm32f4xx_ll_exti.c.o
 .ARM.attributes
                0x000007a6       0x34 stm32f4xx_hal_rcc.c.o
 .ARM.attributes
                0x000007da       0x34 stm32f4xx_hal_cortex.c.o
 .ARM.attributes
                0x0000080e       0x34 stm32f4xx_hal.c.o
 .ARM.attributes
                0x00000842       0x34 stm32f4xx_ll_usart.c.o
 .ARM.attributes
                0x00000876       0x34 system_stm32f4xx.c.o
 .ARM.attributes
                0x000008aa       0x21 startup_stm32f446retx.s.o
 .ARM.attributes
                0x000008cb       0x34 C:/ProgramData/MATLAB/SupportPackages/R2025b/3P.instrset/gnuarm-armcortex.instrset/win/bin/../lib/gcc/arm-none-eabi/13.2.1/thumb/v7e-m+fp/hard\libm.a(libm_a-w_fmod.o)
 .ARM.attributes
                0x000008ff       0x34 C:/ProgramData/MATLAB/SupportPackages/R2025b/3P.instrset/gnuarm-armcortex.instrset/win/bin/../lib/gcc/arm-none-eabi/13.2.1/thumb/v7e-m+fp/hard\libm.a(libm_a-e_fmod.o)
 .ARM.attributes
                0x00000933       0x22 C:/ProgramData/MATLAB/SupportPackages/R2025b/3P.instrset/gnuarm-armcortex.instrset/win/bin/../lib/gcc/arm-none-eabi/13.2.1/thumb/v7e-m+fp/hard\libgcc.a(_arm_addsubdf3.o)
 .ARM.attributes
                0x00000955       0x22 C:/ProgramData/MATLAB/SupportPackages/R2025b/3P.instrset/gnuarm-armcortex.instrset/win/bin/../lib/gcc/arm-none-eabi/13.2.1/thumb/v7e-m+fp/hard\libgcc.a(_arm_muldivdf3.o)
 .ARM.attributes
                0x00000977       0x22 C:/ProgramData/MATLAB/SupportPackages/R2025b/3P.instrset/gnuarm-armcortex.instrset/win/bin/../lib/gcc/arm-none-eabi/13.2.1/thumb/v7e-m+fp/hard\libgcc.a(_arm_cmpdf2.o)
 .ARM.attributes
                0x00000999       0x22 C:/ProgramData/MATLAB/SupportPackages/R2025b/3P.instrset/gnuarm-armcortex.instrset/win/bin/../lib/gcc/arm-none-eabi/13.2.1/thumb/v7e-m+fp/hard\libgcc.a(_arm_unorddf2.o)
 .ARM.attributes
                0x000009bb       0x22 C:/ProgramData/MATLAB/SupportPackages/R2025b/3P.instrset/gnuarm-armcortex.instrset/win/bin/../lib/gcc/arm-none-eabi/13.2.1/thumb/v7e-m+fp/hard\libgcc.a(_arm_fixunsdfsi.o)
 .ARM.attributes
                0x000009dd       0x22 C:/ProgramData/MATLAB/SupportPackages/R2025b/3P.instrset/gnuarm-armcortex.instrset/win/bin/../lib/gcc/arm-none-eabi/13.2.1/thumb/v7e-m+fp/hard\libgcc.a(_aeabi_uldivmod.o)
 .ARM.attributes
                0x000009ff       0x34 C:/ProgramData/MATLAB/SupportPackages/R2025b/3P.instrset/gnuarm-armcortex.instrset/win/bin/../lib/gcc/arm-none-eabi/13.2.1/thumb/v7e-m+fp/hard\libgcc.a(_udivmoddi4.o)
 .ARM.attributes
                0x00000a33       0x22 C:/ProgramData/MATLAB/SupportPackages/R2025b/3P.instrset/gnuarm-armcortex.instrset/win/bin/../lib/gcc/arm-none-eabi/13.2.1/thumb/v7e-m+fp/hard\libgcc.a(_dvmd_tls.o)
 .ARM.attributes
                0x00000a55       0x34 C:/ProgramData/MATLAB/SupportPackages/R2025b/3P.instrset/gnuarm-armcortex.instrset/win/bin/../lib/gcc/arm-none-eabi/13.2.1/thumb/v7e-m+fp/hard\libg_nano.a(libc_a-findfp.o)
 .ARM.attributes
                0x00000a89       0x34 C:/ProgramData/MATLAB/SupportPackages/R2025b/3P.instrset/gnuarm-armcortex.instrset/win/bin/../lib/gcc/arm-none-eabi/13.2.1/thumb/v7e-m+fp/hard\libg_nano.a(libc_a-memset.o)
 .ARM.attributes
                0x00000abd       0x34 C:/ProgramData/MATLAB/SupportPackages/R2025b/3P.instrset/gnuarm-armcortex.instrset/win/bin/../lib/gcc/arm-none-eabi/13.2.1/thumb/v7e-m+fp/hard\libg_nano.a(libc_a-impure.o)
 .ARM.attributes
                0x00000af1       0x34 C:/ProgramData/MATLAB/SupportPackages/R2025b/3P.instrset/gnuarm-armcortex.instrset/win/bin/../lib/gcc/arm-none-eabi/13.2.1/thumb/v7e-m+fp/hard\libg_nano.a(libc_a-errno.o)
 .ARM.attributes
                0x00000b25       0x34 C:/ProgramData/MATLAB/SupportPackages/R2025b/3P.instrset/gnuarm-armcortex.instrset/win/bin/../lib/gcc/arm-none-eabi/13.2.1/thumb/v7e-m+fp/hard\libg_nano.a(libc_a-init.o)
 .ARM.attributes
                0x00000b59       0x34 C:/ProgramData/MATLAB/SupportPackages/R2025b/3P.instrset/gnuarm-armcortex.instrset/win/bin/../lib/gcc/arm-none-eabi/13.2.1/thumb/v7e-m+fp/hard\libg_nano.a(libc_a-memcpy-stub.o)
 .ARM.attributes
                0x00000b8d       0x34 C:/ProgramData/MATLAB/SupportPackages/R2025b/3P.instrset/gnuarm-armcortex.instrset/win/bin/../lib/gcc/arm-none-eabi/13.2.1/thumb/v7e-m+fp/hard/crtend.o
 .ARM.attributes
                0x00000bc1       0x22 C:/ProgramData/MATLAB/SupportPackages/R2025b/3P.instrset/gnuarm-armcortex.instrset/win/bin/../lib/gcc/arm-none-eabi/13.2.1/thumb/v7e-m+fp/hard/crtn.o
OUTPUT(../BMS_MCU_CODE.elf elf32-littlearm)
LOAD linker stubs
LOAD C:/ProgramData/MATLAB/SupportPackages/R2025b/3P.instrset/gnuarm-armcortex.instrset/win/bin/../lib/gcc/arm-none-eabi/13.2.1/thumb/v7e-m+fp/hard\libc.a
LOAD C:/ProgramData/MATLAB/SupportPackages/R2025b/3P.instrset/gnuarm-armcortex.instrset/win/bin/../lib/gcc/arm-none-eabi/13.2.1/thumb/v7e-m+fp/hard\libm.a
LOAD C:/ProgramData/MATLAB/SupportPackages/R2025b/3P.instrset/gnuarm-armcortex.instrset/win/bin/../lib/gcc/arm-none-eabi/13.2.1/thumb/v7e-m+fp/hard\libgcc.a

.debug_info     0x00000000    0x1b2d4
 .debug_info    0x00000000     0x1c0c mw_stm32_spi_ll.c.o
 .debug_info    0x00001c0c      0x801 xcp_ext_mode.c.o
 .debug_info    0x0000240d      0xedc BMS_MCU_CODE.c.o
 .debug_info    0x000032e9      0x3c2 BMS_MCU_CODE_data.c.o
 .debug_info    0x000036ab      0x655 ert_main.c.o
 .debug_info    0x00003d00      0x721 xcp_ext_common.c.o
 .debug_info    0x00004421      0x5a3 xcp_ext_classic_trigger.c.o
 .debug_info    0x000049c4     0x1289 xcp.c.o
 .debug_info    0x00005c4d      0xe8b xcp_standard.c.o
 .debug_info    0x00006ad8     0x2173 xcp_daq.c.o
 .debug_info    0x00008c4b      0x6ed xcp_calibration.c.o
 .debug_info    0x00009338      0x26f xcp_fifo.c.o
 .debug_info    0x000095a7      0x98f xcp_transport.c.o
 .debug_info    0x00009f36      0x79c xcp_mem_default.c.o
 .debug_info    0x0000a6d2      0x553 xcp_drv_rtiostream.c.o
 .debug_info    0x0000ac25       0xdd xcp_utils.c.o
 .debug_info    0x0000ad02      0x760 xcp_frame_serial.c.o
 .debug_info    0x0000b462      0x198 xcp_ext_param_default_serial.c.o
 .debug_info    0x0000b5fa      0x131 overrideHALDelay.c.o
 .debug_info    0x0000b72b      0x386 platform_timer.c.o
 .debug_info    0x0000bab1      0x796 SysTickScheduler.c.o
 .debug_info    0x0000c247      0x10d m3m4m4f_multitasking.c.o
 .debug_info    0x0000c354      0x5a5 rtiostream_serial.c.o
 .debug_info    0x0000c8f9     0x1f70 stm_usart.c.o
 .debug_info    0x0000e869      0x1b8 sys_arch_arm.c.o
 .debug_info    0x0000ea21     0x1e40 main.c.o
 .debug_info    0x00010861      0x735 stm32f4xx_it.c.o
 .debug_info    0x00010f96      0x2f0 stm32f4xx_hal_msp.c.o
 .debug_info    0x00011286      0xc40 stm32f4xx_hal_timebase_tim.c.o
 .debug_info    0x00011ec6     0x2999 stm32f4xx_hal_tim.c.o
 .debug_info    0x0001485f     0x14d7 stm32f4xx_hal_tim_ex.c.o
 .debug_info    0x00015d36      0x953 stm32f4xx_ll_gpio.c.o
 .debug_info    0x00016689      0x759 stm32f4xx_ll_spi.c.o
 .debug_info    0x00016de2      0xbf5 stm32f4xx_ll_rcc.c.o
 .debug_info    0x000179d7      0x946 stm32f4xx_ll_utils.c.o
 .debug_info    0x0001831d      0x333 stm32f4xx_ll_exti.c.o
 .debug_info    0x00018650      0x8e9 stm32f4xx_hal_rcc.c.o
 .debug_info    0x00018f39      0xd71 stm32f4xx_hal_cortex.c.o
 .debug_info    0x00019caa      0x996 stm32f4xx_hal.c.o
 .debug_info    0x0001a640      0x71e stm32f4xx_ll_usart.c.o
 .debug_info    0x0001ad5e      0x546 system_stm32f4xx.c.o
 .debug_info    0x0001b2a4       0x30 startup_stm32f446retx.s.o

.debug_abbrev   0x00000000     0x520d
 .debug_abbrev  0x00000000      0x2e8 mw_stm32_spi_ll.c.o
 .debug_abbrev  0x000002e8      0x21c xcp_ext_mode.c.o
 .debug_abbrev  0x00000504      0x27d BMS_MCU_CODE.c.o
 .debug_abbrev  0x00000781       0xb7 BMS_MCU_CODE_data.c.o
 .debug_abbrev  0x00000838      0x236 ert_main.c.o
 .debug_abbrev  0x00000a6e      0x1fd xcp_ext_common.c.o
 .debug_abbrev  0x00000c6b      0x179 xcp_ext_classic_trigger.c.o
 .debug_abbrev  0x00000de4      0x398 xcp.c.o
 .debug_abbrev  0x0000117c      0x2ed xcp_standard.c.o
 .debug_abbrev  0x00001469      0x3d4 xcp_daq.c.o
 .debug_abbrev  0x0000183d      0x221 xcp_calibration.c.o
 .debug_abbrev  0x00001a5e      0x112 xcp_fifo.c.o
 .debug_abbrev  0x00001b70      0x26d xcp_transport.c.o
 .debug_abbrev  0x00001ddd      0x212 xcp_mem_default.c.o
 .debug_abbrev  0x00001fef      0x14c xcp_drv_rtiostream.c.o
 .debug_abbrev  0x0000213b       0x9c xcp_utils.c.o
 .debug_abbrev  0x000021d7      0x23c xcp_frame_serial.c.o
 .debug_abbrev  0x00002413       0xa3 xcp_ext_param_default_serial.c.o
 .debug_abbrev  0x000024b6       0xa2 overrideHALDelay.c.o
 .debug_abbrev  0x00002558      0x18d platform_timer.c.o
 .debug_abbrev  0x000026e5      0x218 SysTickScheduler.c.o
 .debug_abbrev  0x000028fd       0xb3 m3m4m4f_multitasking.c.o
 .debug_abbrev  0x000029b0      0x1a7 rtiostream_serial.c.o
 .debug_abbrev  0x00002b57      0x37f stm_usart.c.o
 .debug_abbrev  0x00002ed6      0x148 sys_arch_arm.c.o
 .debug_abbrev  0x0000301e      0x38c main.c.o
 .debug_abbrev  0x000033aa      0x192 stm32f4xx_it.c.o
 .debug_abbrev  0x0000353c       0xf7 stm32f4xx_hal_msp.c.o
 .debug_abbrev  0x00003633      0x1f2 stm32f4xx_hal_timebase_tim.c.o
 .debug_abbrev  0x00003825      0x276 stm32f4xx_hal_tim.c.o
 .debug_abbrev  0x00003a9b      0x281 stm32f4xx_hal_tim_ex.c.o
 .debug_abbrev  0x00003d1c      0x235 stm32f4xx_ll_gpio.c.o
 .debug_abbrev  0x00003f51      0x20f stm32f4xx_ll_spi.c.o
 .debug_abbrev  0x00004160      0x1ec stm32f4xx_ll_rcc.c.o
 .debug_abbrev  0x0000434c      0x221 stm32f4xx_ll_utils.c.o
 .debug_abbrev  0x0000456d      0x188 stm32f4xx_ll_exti.c.o
 .debug_abbrev  0x000046f5      0x2b4 stm32f4xx_hal_rcc.c.o
 .debug_abbrev  0x000049a9      0x326 stm32f4xx_hal_cortex.c.o
 .debug_abbrev  0x00004ccf      0x212 stm32f4xx_hal.c.o
 .debug_abbrev  0x00004ee1      0x1f0 stm32f4xx_ll_usart.c.o
 .debug_abbrev  0x000050d1      0x118 system_stm32f4xx.c.o
 .debug_abbrev  0x000051e9       0x24 startup_stm32f446retx.s.o

.debug_aranges  0x00000000     0x1d48
 .debug_aranges
                0x00000000      0x270 mw_stm32_spi_ll.c.o
 .debug_aranges
                0x00000270       0x80 xcp_ext_mode.c.o
 .debug_aranges
                0x000002f0       0x48 BMS_MCU_CODE.c.o
 .debug_aranges
                0x00000338       0x18 BMS_MCU_CODE_data.c.o
 .debug_aranges
                0x00000350       0x28 ert_main.c.o
 .debug_aranges
                0x00000378       0x58 xcp_ext_common.c.o
 .debug_aranges
                0x000003d0       0x48 xcp_ext_classic_trigger.c.o
 .debug_aranges
                0x00000418      0x110 xcp.c.o
 .debug_aranges
                0x00000528       0xd8 xcp_standard.c.o
 .debug_aranges
                0x00000600      0x1b0 xcp_daq.c.o
 .debug_aranges
                0x000007b0       0x68 xcp_calibration.c.o
 .debug_aranges
                0x00000818       0x50 xcp_fifo.c.o
 .debug_aranges
                0x00000868       0xa0 xcp_transport.c.o
 .debug_aranges
                0x00000908       0x68 xcp_mem_default.c.o
 .debug_aranges
                0x00000970       0x48 xcp_drv_rtiostream.c.o
 .debug_aranges
                0x000009b8       0x20 xcp_utils.c.o
 .debug_aranges
                0x000009d8       0x90 xcp_frame_serial.c.o
 .debug_aranges
                0x00000a68       0x30 xcp_ext_param_default_serial.c.o
 .debug_aranges
                0x00000a98       0x20 overrideHALDelay.c.o
 .debug_aranges
                0x00000ab8       0x40 platform_timer.c.o
 .debug_aranges
                0x00000af8       0x48 SysTickScheduler.c.o
 .debug_aranges
                0x00000b40       0x28 m3m4m4f_multitasking.c.o
 .debug_aranges
                0x00000b68       0x38 rtiostream_serial.c.o
 .debug_aranges
                0x00000ba0      0x220 stm_usart.c.o
 .debug_aranges
                0x00000dc0       0x28 sys_arch_arm.c.o
 .debug_aranges
                0x00000de8      0x190 main.c.o
 .debug_aranges
                0x00000f78       0x70 stm32f4xx_it.c.o
 .debug_aranges
                0x00000fe8       0x20 stm32f4xx_hal_msp.c.o
 .debug_aranges
                0x00001008       0x30 stm32f4xx_hal_timebase_tim.c.o
 .debug_aranges
                0x00001038      0x3d0 stm32f4xx_hal_tim.c.o
 .debug_aranges
                0x00001408      0x168 stm32f4xx_hal_tim_ex.c.o
 .debug_aranges
                0x00001570       0x70 stm32f4xx_ll_gpio.c.o
 .debug_aranges
                0x000015e0       0x88 stm32f4xx_ll_spi.c.o
 .debug_aranges
                0x00001668      0x200 stm32f4xx_ll_rcc.c.o
 .debug_aranges
                0x00001868      0x100 stm32f4xx_ll_utils.c.o
 .debug_aranges
                0x00001968       0x70 stm32f4xx_ll_exti.c.o
 .debug_aranges
                0x000019d8       0x88 stm32f4xx_hal_rcc.c.o
 .debug_aranges
                0x00001a60      0x120 stm32f4xx_hal_cortex.c.o
 .debug_aranges
                0x00001b80       0xf0 stm32f4xx_hal.c.o
 .debug_aranges
                0x00001c70       0x88 stm32f4xx_ll_usart.c.o
 .debug_aranges
                0x00001cf8       0x28 system_stm32f4xx.c.o
 .debug_aranges
                0x00001d20       0x28 startup_stm32f446retx.s.o

.debug_rnglists
                0x00000000     0x1613
 .debug_rnglists
                0x00000000      0x1e1 mw_stm32_spi_ll.c.o
 .debug_rnglists
                0x000001e1       0x5e xcp_ext_mode.c.o
 .debug_rnglists
                0x0000023f       0x34 BMS_MCU_CODE.c.o
 .debug_rnglists
                0x00000273       0x1a ert_main.c.o
 .debug_rnglists
                0x0000028d       0x42 xcp_ext_common.c.o
 .debug_rnglists
                0x000002cf       0x35 xcp_ext_classic_trigger.c.o
 .debug_rnglists
                0x00000304       0xcc xcp.c.o
 .debug_rnglists
                0x000003d0       0xbc xcp_standard.c.o
 .debug_rnglists
                0x0000048c      0x152 xcp_daq.c.o
 .debug_rnglists
                0x000005de       0x4b xcp_calibration.c.o
 .debug_rnglists
                0x00000629       0x37 xcp_fifo.c.o
 .debug_rnglists
                0x00000660       0x79 xcp_transport.c.o
 .debug_rnglists
                0x000006d9       0x50 xcp_mem_default.c.o
 .debug_rnglists
                0x00000729       0x34 xcp_drv_rtiostream.c.o
 .debug_rnglists
                0x0000075d       0x14 xcp_utils.c.o
 .debug_rnglists
                0x00000771       0x6b xcp_frame_serial.c.o
 .debug_rnglists
                0x000007dc       0x1f xcp_ext_param_default_serial.c.o
 .debug_rnglists
                0x000007fb       0x13 overrideHALDelay.c.o
 .debug_rnglists
                0x0000080e       0x2b platform_timer.c.o
 .debug_rnglists
                0x00000839       0x32 SysTickScheduler.c.o
 .debug_rnglists
                0x0000086b       0x19 m3m4m4f_multitasking.c.o
 .debug_rnglists
                0x00000884       0x25 rtiostream_serial.c.o
 .debug_rnglists
                0x000008a9      0x1a2 stm_usart.c.o
 .debug_rnglists
                0x00000a4b       0x19 sys_arch_arm.c.o
 .debug_rnglists
                0x00000a64      0x12b main.c.o
 .debug_rnglists
                0x00000b8f       0x4f stm32f4xx_it.c.o
 .debug_rnglists
                0x00000bde       0x13 stm32f4xx_hal_msp.c.o
 .debug_rnglists
                0x00000bf1       0x20 stm32f4xx_hal_timebase_tim.c.o
 .debug_rnglists
                0x00000c11      0x31a stm32f4xx_hal_tim.c.o
 .debug_rnglists
                0x00000f2b      0x125 stm32f4xx_hal_tim_ex.c.o
 .debug_rnglists
                0x00001050       0x51 stm32f4xx_ll_gpio.c.o
 .debug_rnglists
                0x000010a1       0x64 stm32f4xx_ll_spi.c.o
 .debug_rnglists
                0x00001105      0x180 stm32f4xx_ll_rcc.c.o
 .debug_rnglists
                0x00001285       0xbe stm32f4xx_ll_utils.c.o
 .debug_rnglists
                0x00001343       0x50 stm32f4xx_ll_exti.c.o
 .debug_rnglists
                0x00001393       0x66 stm32f4xx_hal_rcc.c.o
 .debug_rnglists
                0x000013f9       0xd4 stm32f4xx_hal_cortex.c.o
 .debug_rnglists
                0x000014cd       0xaf stm32f4xx_hal.c.o
 .debug_rnglists
                0x0000157c       0x64 stm32f4xx_ll_usart.c.o
 .debug_rnglists
                0x000015e0       0x1a system_stm32f4xx.c.o
 .debug_rnglists
                0x000015fa       0x19 startup_stm32f446retx.s.o

.debug_line     0x00000000    0x179b5
 .debug_line    0x00000000     0x1d54 mw_stm32_spi_ll.c.o
 .debug_line    0x00001d54      0x84a xcp_ext_mode.c.o
 .debug_line    0x0000259e      0xa82 BMS_MCU_CODE.c.o
 .debug_line    0x00003020      0x21f BMS_MCU_CODE_data.c.o
 .debug_line    0x0000323f      0x609 ert_main.c.o
 .debug_line    0x00003848      0x715 xcp_ext_common.c.o
 .debug_line    0x00003f5d      0x6a0 xcp_ext_classic_trigger.c.o
 .debug_line    0x000045fd      0xc78 xcp.c.o
 .debug_line    0x00005275      0x93f xcp_standard.c.o
 .debug_line    0x00005bb4     0x1aeb xcp_daq.c.o
 .debug_line    0x0000769f      0x609 xcp_calibration.c.o
 .debug_line    0x00007ca8      0x3cf xcp_fifo.c.o
 .debug_line    0x00008077      0x9c0 xcp_transport.c.o
 .debug_line    0x00008a37      0xa8f xcp_mem_default.c.o
 .debug_line    0x000094c6      0x6e7 xcp_drv_rtiostream.c.o
 .debug_line    0x00009bad      0x178 xcp_utils.c.o
 .debug_line    0x00009d25      0x85a xcp_frame_serial.c.o
 .debug_line    0x0000a57f      0x2a2 xcp_ext_param_default_serial.c.o
 .debug_line    0x0000a821      0x23b overrideHALDelay.c.o
 .debug_line    0x0000aa5c      0x460 platform_timer.c.o
 .debug_line    0x0000aebc      0x4a0 SysTickScheduler.c.o
 .debug_line    0x0000b35c      0x232 m3m4m4f_multitasking.c.o
 .debug_line    0x0000b58e      0x433 rtiostream_serial.c.o
 .debug_line    0x0000b9c1     0x191c stm_usart.c.o
 .debug_line    0x0000d2dd      0x324 sys_arch_arm.c.o
 .debug_line    0x0000d601      0xb59 main.c.o
 .debug_line    0x0000e15a      0x369 stm32f4xx_it.c.o
 .debug_line    0x0000e4c3      0x27d stm32f4xx_hal_msp.c.o
 .debug_line    0x0000e740      0x35e stm32f4xx_hal_timebase_tim.c.o
 .debug_line    0x0000ea9e     0x3332 stm32f4xx_hal_tim.c.o
 .debug_line    0x00011dd0     0x1515 stm32f4xx_hal_tim_ex.c.o
 .debug_line    0x000132e5      0x696 stm32f4xx_ll_gpio.c.o
 .debug_line    0x0001397b      0x4f2 stm32f4xx_ll_spi.c.o
 .debug_line    0x00013e6d      0xe19 stm32f4xx_ll_rcc.c.o
 .debug_line    0x00014c86      0x86f stm32f4xx_ll_utils.c.o
 .debug_line    0x000154f5      0x3dd stm32f4xx_ll_exti.c.o
 .debug_line    0x000158d2      0x9e2 stm32f4xx_hal_rcc.c.o
 .debug_line    0x000162b4      0x88e stm32f4xx_hal_cortex.c.o
 .debug_line    0x00016b42      0x619 stm32f4xx_hal.c.o
 .debug_line    0x0001715b      0x4d9 stm32f4xx_ll_usart.c.o
 .debug_line    0x00017634      0x307 system_stm32f4xx.c.o
 .debug_line    0x0001793b       0x7a startup_stm32f446retx.s.o

.debug_str      0x00000000     0xa189
 .debug_str     0x00000000     0xa189 mw_stm32_spi_ll.c.o
                               0x125d (size before relaxing)
 .debug_str     0x0000a189      0xaaf xcp_ext_mode.c.o
 .debug_str     0x0000a189     0x106e BMS_MCU_CODE.c.o
 .debug_str     0x0000a189      0x650 BMS_MCU_CODE_data.c.o
 .debug_str     0x0000a189      0x777 ert_main.c.o
 .debug_str     0x0000a189      0x81f xcp_ext_common.c.o
 .debug_str     0x0000a189      0x8a6 xcp_ext_classic_trigger.c.o
 .debug_str     0x0000a189     0x136f xcp.c.o
 .debug_str     0x0000a189      0xe11 xcp_standard.c.o
 .debug_str     0x0000a189     0x15c8 xcp_daq.c.o
 .debug_str     0x0000a189      0x90f xcp_calibration.c.o
 .debug_str     0x0000a189      0x2ef xcp_fifo.c.o
 .debug_str     0x0000a189      0x838 xcp_transport.c.o
 .debug_str     0x0000a189      0x6b5 xcp_mem_default.c.o
 .debug_str     0x0000a189      0x5a2 xcp_drv_rtiostream.c.o
 .debug_str     0x0000a189      0x1e1 xcp_utils.c.o
 .debug_str     0x0000a189      0x694 xcp_frame_serial.c.o
 .debug_str     0x0000a189      0x2a2 xcp_ext_param_default_serial.c.o
 .debug_str     0x0000a189      0x277 overrideHALDelay.c.o
 .debug_str     0x0000a189      0x378 platform_timer.c.o
 .debug_str     0x0000a189      0x95d SysTickScheduler.c.o
 .debug_str     0x0000a189      0x25f m3m4m4f_multitasking.c.o
 .debug_str     0x0000a189      0x6ea rtiostream_serial.c.o
 .debug_str     0x0000a189     0x143c stm_usart.c.o
 .debug_str     0x0000a189      0x2ae sys_arch_arm.c.o
 .debug_str     0x0000a189     0x1674 main.c.o
 .debug_str     0x0000a189      0x80c stm32f4xx_it.c.o
 .debug_str     0x0000a189      0x370 stm32f4xx_hal_msp.c.o
 .debug_str     0x0000a189      0xf21 stm32f4xx_hal_timebase_tim.c.o
 .debug_str     0x0000a189     0x174e stm32f4xx_hal_tim.c.o
 .debug_str     0x0000a189      0xf5a stm32f4xx_hal_tim_ex.c.o
 .debug_str     0x0000a189      0x503 stm32f4xx_ll_gpio.c.o
 .debug_str     0x0000a189      0x5de stm32f4xx_ll_spi.c.o
 .debug_str     0x0000a189      0xace stm32f4xx_ll_rcc.c.o
 .debug_str     0x0000a189      0x797 stm32f4xx_ll_utils.c.o
 .debug_str     0x0000a189      0x3dd stm32f4xx_ll_exti.c.o
 .debug_str     0x0000a189      0x76e stm32f4xx_hal_rcc.c.o
 .debug_str     0x0000a189      0xcd3 stm32f4xx_hal_cortex.c.o
 .debug_str     0x0000a189      0xc19 stm32f4xx_hal.c.o
 .debug_str     0x0000a189      0x649 stm32f4xx_ll_usart.c.o
 .debug_str     0x0000a189      0x3e9 system_stm32f4xx.c.o
 .debug_str     0x0000a189       0xcf startup_stm32f446retx.s.o

.comment        0x00000000       0x44
 .comment       0x00000000       0x44 mw_stm32_spi_ll.c.o
                                 0x45 (size before relaxing)
 .comment       0x00000044       0x45 xcp_ext_mode.c.o
 .comment       0x00000044       0x45 BMS_MCU_CODE.c.o
 .comment       0x00000044       0x45 BMS_MCU_CODE_data.c.o
 .comment       0x00000044       0x45 ert_main.c.o
 .comment       0x00000044       0x45 xcp_ext_common.c.o
 .comment       0x00000044       0x45 xcp_ext_classic_trigger.c.o
 .comment       0x00000044       0x45 xcp.c.o
 .comment       0x00000044       0x45 xcp_standard.c.o
 .comment       0x00000044       0x45 xcp_daq.c.o
 .comment       0x00000044       0x45 xcp_calibration.c.o
 .comment       0x00000044       0x45 xcp_fifo.c.o
 .comment       0x00000044       0x45 xcp_transport.c.o
 .comment       0x00000044       0x45 xcp_mem_default.c.o
 .comment       0x00000044       0x45 xcp_drv_rtiostream.c.o
 .comment       0x00000044       0x45 xcp_utils.c.o
 .comment       0x00000044       0x45 xcp_frame_serial.c.o
 .comment       0x00000044       0x45 xcp_ext_param_default_serial.c.o
 .comment       0x00000044       0x45 overrideHALDelay.c.o
 .comment       0x00000044       0x45 platform_timer.c.o
 .comment       0x00000044       0x45 SysTickScheduler.c.o
 .comment       0x00000044       0x45 m3m4m4f_multitasking.c.o
 .comment       0x00000044       0x45 rtiostream_serial.c.o
 .comment       0x00000044       0x45 stm_usart.c.o
 .comment       0x00000044       0x45 sys_arch_arm.c.o
 .comment       0x00000044       0x45 main.c.o
 .comment       0x00000044       0x45 stm32f4xx_it.c.o
 .comment       0x00000044       0x45 stm32f4xx_hal_msp.c.o
 .comment       0x00000044       0x45 stm32f4xx_hal_timebase_tim.c.o
 .comment       0x00000044       0x45 stm32f4xx_hal_tim.c.o
 .comment       0x00000044       0x45 stm32f4xx_hal_tim_ex.c.o
 .comment       0x00000044       0x45 stm32f4xx_ll_gpio.c.o
 .comment       0x00000044       0x45 stm32f4xx_ll_spi.c.o
 .comment       0x00000044       0x45 stm32f4xx_ll_rcc.c.o
 .comment       0x00000044       0x45 stm32f4xx_ll_utils.c.o
 .comment       0x00000044       0x45 stm32f4xx_ll_exti.c.o
 .comment       0x00000044       0x45 stm32f4xx_hal_rcc.c.o
 .comment       0x00000044       0x45 stm32f4xx_hal_cortex.c.o
 .comment       0x00000044       0x45 stm32f4xx_hal.c.o
 .comment       0x00000044       0x45 stm32f4xx_ll_usart.c.o
 .comment       0x00000044       0x45 system_stm32f4xx.c.o

.debug_frame    0x00000000     0x7ba0
 .debug_frame   0x00000000      0xb84 mw_stm32_spi_ll.c.o
 .debug_frame   0x00000b84      0x1dc xcp_ext_mode.c.o
 .debug_frame   0x00000d60       0xec BMS_MCU_CODE.c.o
 .debug_frame   0x00000e4c       0x58 ert_main.c.o
 .debug_frame   0x00000ea4      0x148 xcp_ext_common.c.o
 .debug_frame   0x00000fec       0xe0 xcp_ext_classic_trigger.c.o
 .debug_frame   0x000010cc      0x484 xcp.c.o
 .debug_frame   0x00001550      0x360 xcp_standard.c.o
 .debug_frame   0x000018b0      0x76c xcp_daq.c.o
 .debug_frame   0x0000201c      0x16c xcp_calibration.c.o
 .debug_frame   0x00002188      0x124 xcp_fifo.c.o
 .debug_frame   0x000022ac      0x268 xcp_transport.c.o
 .debug_frame   0x00002514      0x178 xcp_mem_default.c.o
 .debug_frame   0x0000268c       0xe8 xcp_drv_rtiostream.c.o
 .debug_frame   0x00002774       0x38 xcp_utils.c.o
 .debug_frame   0x000027ac      0x224 xcp_frame_serial.c.o
 .debug_frame   0x000029d0       0x88 xcp_ext_param_default_serial.c.o
 .debug_frame   0x00002a58       0x34 overrideHALDelay.c.o
 .debug_frame   0x00002a8c       0xa8 platform_timer.c.o
 .debug_frame   0x00002b34       0xdc SysTickScheduler.c.o
 .debug_frame   0x00002c10       0x30 m3m4m4f_multitasking.c.o
 .debug_frame   0x00002c40       0xa0 rtiostream_serial.c.o
 .debug_frame   0x00002ce0      0x9e0 stm_usart.c.o
 .debug_frame   0x000036c0       0x60 sys_arch_arm.c.o
 .debug_frame   0x00003720      0x6e8 main.c.o
 .debug_frame   0x00003e08      0x144 stm32f4xx_it.c.o
 .debug_frame   0x00003f4c       0x34 stm32f4xx_hal_msp.c.o
 .debug_frame   0x00003f80       0x74 stm32f4xx_hal_timebase_tim.c.o
 .debug_frame   0x00003ff4     0x11c0 stm32f4xx_hal_tim.c.o
 .debug_frame   0x000051b4      0x638 stm32f4xx_hal_tim_ex.c.o
 .debug_frame   0x000057ec      0x1c0 stm32f4xx_ll_gpio.c.o
 .debug_frame   0x000059ac      0x230 stm32f4xx_ll_spi.c.o
 .debug_frame   0x00005bdc      0x87c stm32f4xx_ll_rcc.c.o
 .debug_frame   0x00006458      0x418 stm32f4xx_ll_utils.c.o
 .debug_frame   0x00006870      0x1bc stm32f4xx_ll_exti.c.o
 .debug_frame   0x00006a2c      0x1f4 stm32f4xx_hal_rcc.c.o
 .debug_frame   0x00006c20      0x4b8 stm32f4xx_hal_cortex.c.o
 .debug_frame   0x000070d8      0x374 stm32f4xx_hal.c.o
 .debug_frame   0x0000744c      0x240 stm32f4xx_ll_usart.c.o
 .debug_frame   0x0000768c       0x58 system_stm32f4xx.c.o
 .debug_frame   0x000076e4       0x4c C:/ProgramData/MATLAB/SupportPackages/R2025b/3P.instrset/gnuarm-armcortex.instrset/win/bin/../lib/gcc/arm-none-eabi/13.2.1/thumb/v7e-m+fp/hard\libm.a(libm_a-w_fmod.o)
 .debug_frame   0x00007730       0x34 C:/ProgramData/MATLAB/SupportPackages/R2025b/3P.instrset/gnuarm-armcortex.instrset/win/bin/../lib/gcc/arm-none-eabi/13.2.1/thumb/v7e-m+fp/hard\libm.a(libm_a-e_fmod.o)
 .debug_frame   0x00007764       0xac C:/ProgramData/MATLAB/SupportPackages/R2025b/3P.instrset/gnuarm-armcortex.instrset/win/bin/../lib/gcc/arm-none-eabi/13.2.1/thumb/v7e-m+fp/hard\libgcc.a(_arm_addsubdf3.o)
 .debug_frame   0x00007810       0x50 C:/ProgramData/MATLAB/SupportPackages/R2025b/3P.instrset/gnuarm-armcortex.instrset/win/bin/../lib/gcc/arm-none-eabi/13.2.1/thumb/v7e-m+fp/hard\libgcc.a(_arm_muldivdf3.o)
 .debug_frame   0x00007860       0xc4 C:/ProgramData/MATLAB/SupportPackages/R2025b/3P.instrset/gnuarm-armcortex.instrset/win/bin/../lib/gcc/arm-none-eabi/13.2.1/thumb/v7e-m+fp/hard\libgcc.a(_arm_cmpdf2.o)
 .debug_frame   0x00007924       0x20 C:/ProgramData/MATLAB/SupportPackages/R2025b/3P.instrset/gnuarm-armcortex.instrset/win/bin/../lib/gcc/arm-none-eabi/13.2.1/thumb/v7e-m+fp/hard\libgcc.a(_arm_unorddf2.o)
 .debug_frame   0x00007944       0x24 C:/ProgramData/MATLAB/SupportPackages/R2025b/3P.instrset/gnuarm-armcortex.instrset/win/bin/../lib/gcc/arm-none-eabi/13.2.1/thumb/v7e-m+fp/hard\libgcc.a(_arm_fixunsdfsi.o)
 .debug_frame   0x00007968       0x2c C:/ProgramData/MATLAB/SupportPackages/R2025b/3P.instrset/gnuarm-armcortex.instrset/win/bin/../lib/gcc/arm-none-eabi/13.2.1/thumb/v7e-m+fp/hard\libgcc.a(_aeabi_uldivmod.o)
 .debug_frame   0x00007994       0x34 C:/ProgramData/MATLAB/SupportPackages/R2025b/3P.instrset/gnuarm-armcortex.instrset/win/bin/../lib/gcc/arm-none-eabi/13.2.1/thumb/v7e-m+fp/hard\libgcc.a(_udivmoddi4.o)
 .debug_frame   0x000079c8      0x144 C:/ProgramData/MATLAB/SupportPackages/R2025b/3P.instrset/gnuarm-armcortex.instrset/win/bin/../lib/gcc/arm-none-eabi/13.2.1/thumb/v7e-m+fp/hard\libg_nano.a(libc_a-findfp.o)
 .debug_frame   0x00007b0c       0x20 C:/ProgramData/MATLAB/SupportPackages/R2025b/3P.instrset/gnuarm-armcortex.instrset/win/bin/../lib/gcc/arm-none-eabi/13.2.1/thumb/v7e-m+fp/hard\libg_nano.a(libc_a-memset.o)
 .debug_frame   0x00007b2c       0x20 C:/ProgramData/MATLAB/SupportPackages/R2025b/3P.instrset/gnuarm-armcortex.instrset/win/bin/../lib/gcc/arm-none-eabi/13.2.1/thumb/v7e-m+fp/hard\libg_nano.a(libc_a-errno.o)
 .debug_frame   0x00007b4c       0x2c C:/ProgramData/MATLAB/SupportPackages/R2025b/3P.instrset/gnuarm-armcortex.instrset/win/bin/../lib/gcc/arm-none-eabi/13.2.1/thumb/v7e-m+fp/hard\libg_nano.a(libc_a-init.o)
 .debug_frame   0x00007b78       0x28 C:/ProgramData/MATLAB/SupportPackages/R2025b/3P.instrset/gnuarm-armcortex.instrset/win/bin/../lib/gcc/arm-none-eabi/13.2.1/thumb/v7e-m+fp/hard\libg_nano.a(libc_a-memcpy-stub.o)

.debug_loclists
                0x00000000       0x98
 .debug_loclists
                0x00000000       0x98 platform_timer.c.o

.debug_line_str
                0x00000000      0x195
 .debug_line_str
                0x00000000      0x195 startup_stm32f446retx.s.o
                                 0xb3 (size before relaxing)
 .debug_line_str
                0x00000195       0xce C:/ProgramData/MATLAB/SupportPackages/R2025b/3P.instrset/gnuarm-armcortex.instrset/win/bin/../lib/gcc/arm-none-eabi/13.2.1/thumb/v7e-m+fp/hard\libgcc.a(_arm_addsubdf3.o)
 .debug_line_str
                0x00000195       0xce C:/ProgramData/MATLAB/SupportPackages/R2025b/3P.instrset/gnuarm-armcortex.instrset/win/bin/../lib/gcc/arm-none-eabi/13.2.1/thumb/v7e-m+fp/hard\libgcc.a(_arm_muldivdf3.o)
 .debug_line_str
                0x00000195       0xce C:/ProgramData/MATLAB/SupportPackages/R2025b/3P.instrset/gnuarm-armcortex.instrset/win/bin/../lib/gcc/arm-none-eabi/13.2.1/thumb/v7e-m+fp/hard\libgcc.a(_arm_cmpdf2.o)
 .debug_line_str
                0x00000195       0xce C:/ProgramData/MATLAB/SupportPackages/R2025b/3P.instrset/gnuarm-armcortex.instrset/win/bin/../lib/gcc/arm-none-eabi/13.2.1/thumb/v7e-m+fp/hard\libgcc.a(_arm_unorddf2.o)
 .debug_line_str
                0x00000195       0xce C:/ProgramData/MATLAB/SupportPackages/R2025b/3P.instrset/gnuarm-armcortex.instrset/win/bin/../lib/gcc/arm-none-eabi/13.2.1/thumb/v7e-m+fp/hard\libgcc.a(_arm_fixunsdfsi.o)
 .debug_line_str
                0x00000195       0xc9 C:/ProgramData/MATLAB/SupportPackages/R2025b/3P.instrset/gnuarm-armcortex.instrset/win/bin/../lib/gcc/arm-none-eabi/13.2.1/thumb/v7e-m+fp/hard\libgcc.a(_aeabi_uldivmod.o)
 .debug_line_str
                0x00000195       0xcd C:/ProgramData/MATLAB/SupportPackages/R2025b/3P.instrset/gnuarm-armcortex.instrset/win/bin/../lib/gcc/arm-none-eabi/13.2.1/thumb/v7e-m+fp/hard\libgcc.a(_dvmd_tls.o)
